
Leds_Final.elf:     file format elf32-littlearm

Sections:
Idx Name          Size      VMA       LMA       File off  Algn
  0 .isr_vector   000001c4  08000000  08000000  00001000  2**0
                  CONTENTS, ALLOC, LOAD, READONLY, DATA
  1 .text         00004bb0  080001c8  080001c8  000011c8  2**3
                  CONTENTS, ALLOC, LOAD, READONLY, CODE
  2 .rodata       00072f48  08004d78  08004d78  00005d78  2**2
                  CONTENTS, ALLOC, LOAD, READONLY, DATA
  3 .ARM.extab    00000000  08077cc0  08077cc0  00079480  2**0
                  CONTENTS
  4 .ARM          00000000  08077cc0  08077cc0  00079480  2**0
                  CONTENTS
  5 .preinit_array 00000000  08077cc0  08077cc0  00079480  2**0
                  CONTENTS, ALLOC, LOAD, DATA
  6 .init_array   00000004  08077cc0  08077cc0  00078cc0  2**2
                  CONTENTS, ALLOC, LOAD, READONLY, DATA
  7 .fini_array   00000004  08077cc4  08077cc4  00078cc4  2**2
                  CONTENTS, ALLOC, LOAD, READONLY, DATA
  8 .data         00000480  20000000  08077cc8  00079000  2**2
                  CONTENTS, ALLOC, LOAD, DATA
  9 .bss          0000b230  20000480  08078148  00079480  2**2
                  ALLOC
 10 ._user_heap_stack 00000600  2000b6b0  08078148  000796b0  2**0
                  ALLOC
 11 .ARM.attributes 00000030  00000000  00000000  00079480  2**0
                  CONTENTS, READONLY
 12 .debug_info   0000c09e  00000000  00000000  000794b0  2**0
                  CONTENTS, READONLY, DEBUGGING, OCTETS
 13 .debug_abbrev 00001e70  00000000  00000000  0008554e  2**0
                  CONTENTS, READONLY, DEBUGGING, OCTETS
 14 .debug_aranges 00000b48  00000000  00000000  000873c0  2**3
                  CONTENTS, READONLY, DEBUGGING, OCTETS
 15 .debug_rnglists 000008cf  00000000  00000000  00087f08  2**0
                  CONTENTS, READONLY, DEBUGGING, OCTETS
 16 .debug_macro  0002348e  00000000  00000000  000887d7  2**0
                  CONTENTS, READONLY, DEBUGGING, OCTETS
 17 .debug_line   0000db7a  00000000  00000000  000abc65  2**0
                  CONTENTS, READONLY, DEBUGGING, OCTETS
 18 .debug_str    000db53b  00000000  00000000  000b97df  2**0
                  CONTENTS, READONLY, DEBUGGING, OCTETS
 19 .comment      00000043  00000000  00000000  00194d1a  2**0
                  CONTENTS, READONLY
 20 .debug_frame  00003584  00000000  00000000  00194d60  2**2
                  CONTENTS, READONLY, DEBUGGING, OCTETS
 21 .debug_line_str 00000065  00000000  00000000  001982e4  2**0
                  CONTENTS, READONLY, DEBUGGING, OCTETS

Disassembly of section .text:

080001c8 <__do_global_dtors_aux>:
 80001c8:	b510      	push	{r4, lr}
 80001ca:	4c05      	ldr	r4, [pc, #20]	@ (80001e0 <__do_global_dtors_aux+0x18>)
 80001cc:	7823      	ldrb	r3, [r4, #0]
 80001ce:	b933      	cbnz	r3, 80001de <__do_global_dtors_aux+0x16>
 80001d0:	4b04      	ldr	r3, [pc, #16]	@ (80001e4 <__do_global_dtors_aux+0x1c>)
 80001d2:	b113      	cbz	r3, 80001da <__do_global_dtors_aux+0x12>
 80001d4:	4804      	ldr	r0, [pc, #16]	@ (80001e8 <__do_global_dtors_aux+0x20>)
 80001d6:	f3af 8000 	nop.w
 80001da:	2301      	movs	r3, #1
 80001dc:	7023      	strb	r3, [r4, #0]
 80001de:	bd10      	pop	{r4, pc}
 80001e0:	20000480 	.word	0x20000480
 80001e4:	00000000 	.word	0x00000000
 80001e8:	08004d60 	.word	0x08004d60

080001ec <frame_dummy>:
 80001ec:	b508      	push	{r3, lr}
 80001ee:	4b03      	ldr	r3, [pc, #12]	@ (80001fc <frame_dummy+0x10>)
 80001f0:	b11b      	cbz	r3, 80001fa <frame_dummy+0xe>
 80001f2:	4903      	ldr	r1, [pc, #12]	@ (8000200 <frame_dummy+0x14>)
 80001f4:	4803      	ldr	r0, [pc, #12]	@ (8000204 <frame_dummy+0x18>)
 80001f6:	f3af 8000 	nop.w
 80001fa:	bd08      	pop	{r3, pc}
 80001fc:	00000000 	.word	0x00000000
 8000200:	20000484 	.word	0x20000484
 8000204:	08004d60 	.word	0x08004d60

08000208 <__aeabi_dmul>:
 8000208:	b570      	push	{r4, r5, r6, lr}
 800020a:	f04f 0cff 	mov.w	ip, #255	@ 0xff
 800020e:	f44c 6ce0 	orr.w	ip, ip, #1792	@ 0x700
 8000212:	ea1c 5411 	ands.w	r4, ip, r1, lsr #20
 8000216:	bf1d      	ittte	ne
 8000218:	ea1c 5513 	andsne.w	r5, ip, r3, lsr #20
 800021c:	ea94 0f0c 	teqne	r4, ip
 8000220:	ea95 0f0c 	teqne	r5, ip
 8000224:	f000 f8de 	bleq	80003e4 <__aeabi_dmul+0x1dc>
 8000228:	442c      	add	r4, r5
 800022a:	ea81 0603 	eor.w	r6, r1, r3
 800022e:	ea21 514c 	bic.w	r1, r1, ip, lsl #21
 8000232:	ea23 534c 	bic.w	r3, r3, ip, lsl #21
 8000236:	ea50 3501 	orrs.w	r5, r0, r1, lsl #12
 800023a:	bf18      	it	ne
 800023c:	ea52 3503 	orrsne.w	r5, r2, r3, lsl #12
 8000240:	f441 1180 	orr.w	r1, r1, #1048576	@ 0x100000
 8000244:	f443 1380 	orr.w	r3, r3, #1048576	@ 0x100000
 8000248:	d038      	beq.n	80002bc <__aeabi_dmul+0xb4>
 800024a:	fba0 ce02 	umull	ip, lr, r0, r2
 800024e:	f04f 0500 	mov.w	r5, #0
 8000252:	fbe1 e502 	umlal	lr, r5, r1, r2
 8000256:	f006 4200 	and.w	r2, r6, #2147483648	@ 0x80000000
 800025a:	fbe0 e503 	umlal	lr, r5, r0, r3
 800025e:	f04f 0600 	mov.w	r6, #0
 8000262:	fbe1 5603 	umlal	r5, r6, r1, r3
 8000266:	f09c 0f00 	teq	ip, #0
 800026a:	bf18      	it	ne
 800026c:	f04e 0e01 	orrne.w	lr, lr, #1
 8000270:	f1a4 04ff 	sub.w	r4, r4, #255	@ 0xff
 8000274:	f5b6 7f00 	cmp.w	r6, #512	@ 0x200
 8000278:	f564 7440 	sbc.w	r4, r4, #768	@ 0x300
 800027c:	d204      	bcs.n	8000288 <__aeabi_dmul+0x80>
 800027e:	ea5f 0e4e 	movs.w	lr, lr, lsl #1
 8000282:	416d      	adcs	r5, r5
 8000284:	eb46 0606 	adc.w	r6, r6, r6
 8000288:	ea42 21c6 	orr.w	r1, r2, r6, lsl #11
 800028c:	ea41 5155 	orr.w	r1, r1, r5, lsr #21
 8000290:	ea4f 20c5 	mov.w	r0, r5, lsl #11
 8000294:	ea40 505e 	orr.w	r0, r0, lr, lsr #21
 8000298:	ea4f 2ece 	mov.w	lr, lr, lsl #11
 800029c:	f1b4 0cfd 	subs.w	ip, r4, #253	@ 0xfd
 80002a0:	bf88      	it	hi
 80002a2:	f5bc 6fe0 	cmphi.w	ip, #1792	@ 0x700
 80002a6:	d81e      	bhi.n	80002e6 <__aeabi_dmul+0xde>
 80002a8:	f1be 4f00 	cmp.w	lr, #2147483648	@ 0x80000000
 80002ac:	bf08      	it	eq
 80002ae:	ea5f 0e50 	movseq.w	lr, r0, lsr #1
 80002b2:	f150 0000 	adcs.w	r0, r0, #0
 80002b6:	eb41 5104 	adc.w	r1, r1, r4, lsl #20
 80002ba:	bd70      	pop	{r4, r5, r6, pc}
 80002bc:	f006 4600 	and.w	r6, r6, #2147483648	@ 0x80000000
 80002c0:	ea46 0101 	orr.w	r1, r6, r1
 80002c4:	ea40 0002 	orr.w	r0, r0, r2
 80002c8:	ea81 0103 	eor.w	r1, r1, r3
 80002cc:	ebb4 045c 	subs.w	r4, r4, ip, lsr #1
 80002d0:	bfc2      	ittt	gt
 80002d2:	ebd4 050c 	rsbsgt	r5, r4, ip
 80002d6:	ea41 5104 	orrgt.w	r1, r1, r4, lsl #20
 80002da:	bd70      	popgt	{r4, r5, r6, pc}
 80002dc:	f441 1180 	orr.w	r1, r1, #1048576	@ 0x100000
 80002e0:	f04f 0e00 	mov.w	lr, #0
 80002e4:	3c01      	subs	r4, #1
 80002e6:	f300 80ab 	bgt.w	8000440 <__aeabi_dmul+0x238>
 80002ea:	f114 0f36 	cmn.w	r4, #54	@ 0x36
 80002ee:	bfde      	ittt	le
 80002f0:	2000      	movle	r0, #0
 80002f2:	f001 4100 	andle.w	r1, r1, #2147483648	@ 0x80000000
 80002f6:	bd70      	pople	{r4, r5, r6, pc}
 80002f8:	f1c4 0400 	rsb	r4, r4, #0
 80002fc:	3c20      	subs	r4, #32
 80002fe:	da35      	bge.n	800036c <__aeabi_dmul+0x164>
 8000300:	340c      	adds	r4, #12
 8000302:	dc1b      	bgt.n	800033c <__aeabi_dmul+0x134>
 8000304:	f104 0414 	add.w	r4, r4, #20
 8000308:	f1c4 0520 	rsb	r5, r4, #32
 800030c:	fa00 f305 	lsl.w	r3, r0, r5
 8000310:	fa20 f004 	lsr.w	r0, r0, r4
 8000314:	fa01 f205 	lsl.w	r2, r1, r5
 8000318:	ea40 0002 	orr.w	r0, r0, r2
 800031c:	f001 4200 	and.w	r2, r1, #2147483648	@ 0x80000000
 8000320:	f021 4100 	bic.w	r1, r1, #2147483648	@ 0x80000000
 8000324:	eb10 70d3 	adds.w	r0, r0, r3, lsr #31
 8000328:	fa21 f604 	lsr.w	r6, r1, r4
 800032c:	eb42 0106 	adc.w	r1, r2, r6
 8000330:	ea5e 0e43 	orrs.w	lr, lr, r3, lsl #1
 8000334:	bf08      	it	eq
 8000336:	ea20 70d3 	biceq.w	r0, r0, r3, lsr #31
 800033a:	bd70      	pop	{r4, r5, r6, pc}
 800033c:	f1c4 040c 	rsb	r4, r4, #12
 8000340:	f1c4 0520 	rsb	r5, r4, #32
 8000344:	fa00 f304 	lsl.w	r3, r0, r4
 8000348:	fa20 f005 	lsr.w	r0, r0, r5
 800034c:	fa01 f204 	lsl.w	r2, r1, r4
 8000350:	ea40 0002 	orr.w	r0, r0, r2
 8000354:	f001 4100 	and.w	r1, r1, #2147483648	@ 0x80000000
 8000358:	eb10 70d3 	adds.w	r0, r0, r3, lsr #31
 800035c:	f141 0100 	adc.w	r1, r1, #0
 8000360:	ea5e 0e43 	orrs.w	lr, lr, r3, lsl #1
 8000364:	bf08      	it	eq
 8000366:	ea20 70d3 	biceq.w	r0, r0, r3, lsr #31
 800036a:	bd70      	pop	{r4, r5, r6, pc}
 800036c:	f1c4 0520 	rsb	r5, r4, #32
 8000370:	fa00 f205 	lsl.w	r2, r0, r5
 8000374:	ea4e 0e02 	orr.w	lr, lr, r2
 8000378:	fa20 f304 	lsr.w	r3, r0, r4
 800037c:	fa01 f205 	lsl.w	r2, r1, r5
 8000380:	ea43 0302 	orr.w	r3, r3, r2
 8000384:	fa21 f004 	lsr.w	r0, r1, r4
 8000388:	f001 4100 	and.w	r1, r1, #2147483648	@ 0x80000000
 800038c:	fa21 f204 	lsr.w	r2, r1, r4
 8000390:	ea20 0002 	bic.w	r0, r0, r2
 8000394:	eb00 70d3 	add.w	r0, r0, r3, lsr #31
 8000398:	ea5e 0e43 	orrs.w	lr, lr, r3, lsl #1
 800039c:	bf08      	it	eq
 800039e:	ea20 70d3 	biceq.w	r0, r0, r3, lsr #31
 80003a2:	bd70      	pop	{r4, r5, r6, pc}
 80003a4:	f094 0f00 	teq	r4, #0
 80003a8:	d10f      	bne.n	80003ca <__aeabi_dmul+0x1c2>
 80003aa:	f001 4600 	and.w	r6, r1, #2147483648	@ 0x80000000
 80003ae:	0040      	lsls	r0, r0, #1
 80003b0:	eb41 0101 	adc.w	r1, r1, r1
 80003b4:	f411 1f80 	tst.w	r1, #1048576	@ 0x100000
 80003b8:	bf08      	it	eq
 80003ba:	3c01      	subeq	r4, #1
 80003bc:	d0f7      	beq.n	80003ae <__aeabi_dmul+0x1a6>
 80003be:	ea41 0106 	orr.w	r1, r1, r6
 80003c2:	f095 0f00 	teq	r5, #0
 80003c6:	bf18      	it	ne
 80003c8:	4770      	bxne	lr
 80003ca:	f003 4600 	and.w	r6, r3, #2147483648	@ 0x80000000
 80003ce:	0052      	lsls	r2, r2, #1
 80003d0:	eb43 0303 	adc.w	r3, r3, r3
 80003d4:	f413 1f80 	tst.w	r3, #1048576	@ 0x100000
 80003d8:	bf08      	it	eq
 80003da:	3d01      	subeq	r5, #1
 80003dc:	d0f7      	beq.n	80003ce <__aeabi_dmul+0x1c6>
 80003de:	ea43 0306 	orr.w	r3, r3, r6
 80003e2:	4770      	bx	lr
 80003e4:	ea94 0f0c 	teq	r4, ip
 80003e8:	ea0c 5513 	and.w	r5, ip, r3, lsr #20
 80003ec:	bf18      	it	ne
 80003ee:	ea95 0f0c 	teqne	r5, ip
 80003f2:	d00c      	beq.n	800040e <__aeabi_dmul+0x206>
 80003f4:	ea50 0641 	orrs.w	r6, r0, r1, lsl #1
 80003f8:	bf18      	it	ne
 80003fa:	ea52 0643 	orrsne.w	r6, r2, r3, lsl #1
 80003fe:	d1d1      	bne.n	80003a4 <__aeabi_dmul+0x19c>
 8000400:	ea81 0103 	eor.w	r1, r1, r3
 8000404:	f001 4100 	and.w	r1, r1, #2147483648	@ 0x80000000
 8000408:	f04f 0000 	mov.w	r0, #0
 800040c:	bd70      	pop	{r4, r5, r6, pc}
 800040e:	ea50 0641 	orrs.w	r6, r0, r1, lsl #1
 8000412:	bf06      	itte	eq
 8000414:	4610      	moveq	r0, r2
 8000416:	4619      	moveq	r1, r3
 8000418:	ea52 0643 	orrsne.w	r6, r2, r3, lsl #1
 800041c:	d019      	beq.n	8000452 <__aeabi_dmul+0x24a>
 800041e:	ea94 0f0c 	teq	r4, ip
 8000422:	d102      	bne.n	800042a <__aeabi_dmul+0x222>
 8000424:	ea50 3601 	orrs.w	r6, r0, r1, lsl #12
 8000428:	d113      	bne.n	8000452 <__aeabi_dmul+0x24a>
 800042a:	ea95 0f0c 	teq	r5, ip
 800042e:	d105      	bne.n	800043c <__aeabi_dmul+0x234>
 8000430:	ea52 3603 	orrs.w	r6, r2, r3, lsl #12
 8000434:	bf1c      	itt	ne
 8000436:	4610      	movne	r0, r2
 8000438:	4619      	movne	r1, r3
 800043a:	d10a      	bne.n	8000452 <__aeabi_dmul+0x24a>
 800043c:	ea81 0103 	eor.w	r1, r1, r3
 8000440:	f001 4100 	and.w	r1, r1, #2147483648	@ 0x80000000
 8000444:	f041 41fe 	orr.w	r1, r1, #2130706432	@ 0x7f000000
 8000448:	f441 0170 	orr.w	r1, r1, #15728640	@ 0xf00000
 800044c:	f04f 0000 	mov.w	r0, #0
 8000450:	bd70      	pop	{r4, r5, r6, pc}
 8000452:	f041 41fe 	orr.w	r1, r1, #2130706432	@ 0x7f000000
 8000456:	f441 0178 	orr.w	r1, r1, #16252928	@ 0xf80000
 800045a:	bd70      	pop	{r4, r5, r6, pc}

0800045c <__aeabi_drsub>:
 800045c:	f081 4100 	eor.w	r1, r1, #2147483648	@ 0x80000000
 8000460:	e002      	b.n	8000468 <__adddf3>
 8000462:	bf00      	nop

08000464 <__aeabi_dsub>:
 8000464:	f083 4300 	eor.w	r3, r3, #2147483648	@ 0x80000000

08000468 <__adddf3>:
 8000468:	b530      	push	{r4, r5, lr}
 800046a:	ea4f 0441 	mov.w	r4, r1, lsl #1
 800046e:	ea4f 0543 	mov.w	r5, r3, lsl #1
 8000472:	ea94 0f05 	teq	r4, r5
 8000476:	bf08      	it	eq
 8000478:	ea90 0f02 	teqeq	r0, r2
 800047c:	bf1f      	itttt	ne
 800047e:	ea54 0c00 	orrsne.w	ip, r4, r0
 8000482:	ea55 0c02 	orrsne.w	ip, r5, r2
 8000486:	ea7f 5c64 	mvnsne.w	ip, r4, asr #21
 800048a:	ea7f 5c65 	mvnsne.w	ip, r5, asr #21
 800048e:	f000 80e2 	beq.w	8000656 <__adddf3+0x1ee>
 8000492:	ea4f 5454 	mov.w	r4, r4, lsr #21
 8000496:	ebd4 5555 	rsbs	r5, r4, r5, lsr #21
 800049a:	bfb8      	it	lt
 800049c:	426d      	neglt	r5, r5
 800049e:	dd0c      	ble.n	80004ba <__adddf3+0x52>
 80004a0:	442c      	add	r4, r5
 80004a2:	ea80 0202 	eor.w	r2, r0, r2
 80004a6:	ea81 0303 	eor.w	r3, r1, r3
 80004aa:	ea82 0000 	eor.w	r0, r2, r0
 80004ae:	ea83 0101 	eor.w	r1, r3, r1
 80004b2:	ea80 0202 	eor.w	r2, r0, r2
 80004b6:	ea81 0303 	eor.w	r3, r1, r3
 80004ba:	2d36      	cmp	r5, #54	@ 0x36
 80004bc:	bf88      	it	hi
 80004be:	bd30      	pophi	{r4, r5, pc}
 80004c0:	f011 4f00 	tst.w	r1, #2147483648	@ 0x80000000
 80004c4:	ea4f 3101 	mov.w	r1, r1, lsl #12
 80004c8:	f44f 1c80 	mov.w	ip, #1048576	@ 0x100000
 80004cc:	ea4c 3111 	orr.w	r1, ip, r1, lsr #12
 80004d0:	d002      	beq.n	80004d8 <__adddf3+0x70>
 80004d2:	4240      	negs	r0, r0
 80004d4:	eb61 0141 	sbc.w	r1, r1, r1, lsl #1
 80004d8:	f013 4f00 	tst.w	r3, #2147483648	@ 0x80000000
 80004dc:	ea4f 3303 	mov.w	r3, r3, lsl #12
 80004e0:	ea4c 3313 	orr.w	r3, ip, r3, lsr #12
 80004e4:	d002      	beq.n	80004ec <__adddf3+0x84>
 80004e6:	4252      	negs	r2, r2
 80004e8:	eb63 0343 	sbc.w	r3, r3, r3, lsl #1
 80004ec:	ea94 0f05 	teq	r4, r5
 80004f0:	f000 80a7 	beq.w	8000642 <__adddf3+0x1da>
 80004f4:	f1a4 0401 	sub.w	r4, r4, #1
 80004f8:	f1d5 0e20 	rsbs	lr, r5, #32
 80004fc:	db0d      	blt.n	800051a <__adddf3+0xb2>
 80004fe:	fa02 fc0e 	lsl.w	ip, r2, lr
 8000502:	fa22 f205 	lsr.w	r2, r2, r5
 8000506:	1880      	adds	r0, r0, r2
 8000508:	f141 0100 	adc.w	r1, r1, #0
 800050c:	fa03 f20e 	lsl.w	r2, r3, lr
 8000510:	1880      	adds	r0, r0, r2
 8000512:	fa43 f305 	asr.w	r3, r3, r5
 8000516:	4159      	adcs	r1, r3
 8000518:	e00e      	b.n	8000538 <__adddf3+0xd0>
 800051a:	f1a5 0520 	sub.w	r5, r5, #32
 800051e:	f10e 0e20 	add.w	lr, lr, #32
 8000522:	2a01      	cmp	r2, #1
 8000524:	fa03 fc0e 	lsl.w	ip, r3, lr
 8000528:	bf28      	it	cs
 800052a:	f04c 0c02 	orrcs.w	ip, ip, #2
 800052e:	fa43 f305 	asr.w	r3, r3, r5
 8000532:	18c0      	adds	r0, r0, r3
 8000534:	eb51 71e3 	adcs.w	r1, r1, r3, asr #31
 8000538:	f001 4500 	and.w	r5, r1, #2147483648	@ 0x80000000
 800053c:	d507      	bpl.n	800054e <__adddf3+0xe6>
 800053e:	f04f 0e00 	mov.w	lr, #0
 8000542:	f1dc 0c00 	rsbs	ip, ip, #0
 8000546:	eb7e 0000 	sbcs.w	r0, lr, r0
 800054a:	eb6e 0101 	sbc.w	r1, lr, r1
 800054e:	f5b1 1f80 	cmp.w	r1, #1048576	@ 0x100000
 8000552:	d31b      	bcc.n	800058c <__adddf3+0x124>
 8000554:	f5b1 1f00 	cmp.w	r1, #2097152	@ 0x200000
 8000558:	d30c      	bcc.n	8000574 <__adddf3+0x10c>
 800055a:	0849      	lsrs	r1, r1, #1
 800055c:	ea5f 0030 	movs.w	r0, r0, rrx
 8000560:	ea4f 0c3c 	mov.w	ip, ip, rrx
 8000564:	f104 0401 	add.w	r4, r4, #1
 8000568:	ea4f 5244 	mov.w	r2, r4, lsl #21
 800056c:	f512 0f80 	cmn.w	r2, #4194304	@ 0x400000
 8000570:	f080 809a 	bcs.w	80006a8 <__adddf3+0x240>
 8000574:	f1bc 4f00 	cmp.w	ip, #2147483648	@ 0x80000000
 8000578:	bf08      	it	eq
 800057a:	ea5f 0c50 	movseq.w	ip, r0, lsr #1
 800057e:	f150 0000 	adcs.w	r0, r0, #0
 8000582:	eb41 5104 	adc.w	r1, r1, r4, lsl #20
 8000586:	ea41 0105 	orr.w	r1, r1, r5
 800058a:	bd30      	pop	{r4, r5, pc}
 800058c:	ea5f 0c4c 	movs.w	ip, ip, lsl #1
 8000590:	4140      	adcs	r0, r0
 8000592:	eb41 0101 	adc.w	r1, r1, r1
 8000596:	3c01      	subs	r4, #1
 8000598:	bf28      	it	cs
 800059a:	f5b1 1f80 	cmpcs.w	r1, #1048576	@ 0x100000
 800059e:	d2e9      	bcs.n	8000574 <__adddf3+0x10c>
 80005a0:	f091 0f00 	teq	r1, #0
 80005a4:	bf04      	itt	eq
 80005a6:	4601      	moveq	r1, r0
 80005a8:	2000      	moveq	r0, #0
 80005aa:	fab1 f381 	clz	r3, r1
 80005ae:	bf08      	it	eq
 80005b0:	3320      	addeq	r3, #32
 80005b2:	f1a3 030b 	sub.w	r3, r3, #11
 80005b6:	f1b3 0220 	subs.w	r2, r3, #32
 80005ba:	da0c      	bge.n	80005d6 <__adddf3+0x16e>
 80005bc:	320c      	adds	r2, #12
 80005be:	dd08      	ble.n	80005d2 <__adddf3+0x16a>
 80005c0:	f102 0c14 	add.w	ip, r2, #20
 80005c4:	f1c2 020c 	rsb	r2, r2, #12
 80005c8:	fa01 f00c 	lsl.w	r0, r1, ip
 80005cc:	fa21 f102 	lsr.w	r1, r1, r2
 80005d0:	e00c      	b.n	80005ec <__adddf3+0x184>
 80005d2:	f102 0214 	add.w	r2, r2, #20
 80005d6:	bfd8      	it	le
 80005d8:	f1c2 0c20 	rsble	ip, r2, #32
 80005dc:	fa01 f102 	lsl.w	r1, r1, r2
 80005e0:	fa20 fc0c 	lsr.w	ip, r0, ip
 80005e4:	bfdc      	itt	le
 80005e6:	ea41 010c 	orrle.w	r1, r1, ip
 80005ea:	4090      	lslle	r0, r2
 80005ec:	1ae4      	subs	r4, r4, r3
 80005ee:	bfa2      	ittt	ge
 80005f0:	eb01 5104 	addge.w	r1, r1, r4, lsl #20
 80005f4:	4329      	orrge	r1, r5
 80005f6:	bd30      	popge	{r4, r5, pc}
 80005f8:	ea6f 0404 	mvn.w	r4, r4
 80005fc:	3c1f      	subs	r4, #31
 80005fe:	da1c      	bge.n	800063a <__adddf3+0x1d2>
 8000600:	340c      	adds	r4, #12
 8000602:	dc0e      	bgt.n	8000622 <__adddf3+0x1ba>
 8000604:	f104 0414 	add.w	r4, r4, #20
 8000608:	f1c4 0220 	rsb	r2, r4, #32
 800060c:	fa20 f004 	lsr.w	r0, r0, r4
 8000610:	fa01 f302 	lsl.w	r3, r1, r2
 8000614:	ea40 0003 	orr.w	r0, r0, r3
 8000618:	fa21 f304 	lsr.w	r3, r1, r4
 800061c:	ea45 0103 	orr.w	r1, r5, r3
 8000620:	bd30      	pop	{r4, r5, pc}
 8000622:	f1c4 040c 	rsb	r4, r4, #12
 8000626:	f1c4 0220 	rsb	r2, r4, #32
 800062a:	fa20 f002 	lsr.w	r0, r0, r2
 800062e:	fa01 f304 	lsl.w	r3, r1, r4
 8000632:	ea40 0003 	orr.w	r0, r0, r3
 8000636:	4629      	mov	r1, r5
 8000638:	bd30      	pop	{r4, r5, pc}
 800063a:	fa21 f004 	lsr.w	r0, r1, r4
 800063e:	4629      	mov	r1, r5
 8000640:	bd30      	pop	{r4, r5, pc}
 8000642:	f094 0f00 	teq	r4, #0
 8000646:	f483 1380 	eor.w	r3, r3, #1048576	@ 0x100000
 800064a:	bf06      	itte	eq
 800064c:	f481 1180 	eoreq.w	r1, r1, #1048576	@ 0x100000
 8000650:	3401      	addeq	r4, #1
 8000652:	3d01      	subne	r5, #1
 8000654:	e74e      	b.n	80004f4 <__adddf3+0x8c>
 8000656:	ea7f 5c64 	mvns.w	ip, r4, asr #21
 800065a:	bf18      	it	ne
 800065c:	ea7f 5c65 	mvnsne.w	ip, r5, asr #21
 8000660:	d029      	beq.n	80006b6 <__adddf3+0x24e>
 8000662:	ea94 0f05 	teq	r4, r5
 8000666:	bf08      	it	eq
 8000668:	ea90 0f02 	teqeq	r0, r2
 800066c:	d005      	beq.n	800067a <__adddf3+0x212>
 800066e:	ea54 0c00 	orrs.w	ip, r4, r0
 8000672:	bf04      	itt	eq
 8000674:	4619      	moveq	r1, r3
 8000676:	4610      	moveq	r0, r2
 8000678:	bd30      	pop	{r4, r5, pc}
 800067a:	ea91 0f03 	teq	r1, r3
 800067e:	bf1e      	ittt	ne
 8000680:	2100      	movne	r1, #0
 8000682:	2000      	movne	r0, #0
 8000684:	bd30      	popne	{r4, r5, pc}
 8000686:	ea5f 5c54 	movs.w	ip, r4, lsr #21
 800068a:	d105      	bne.n	8000698 <__adddf3+0x230>
 800068c:	0040      	lsls	r0, r0, #1
 800068e:	4149      	adcs	r1, r1
 8000690:	bf28      	it	cs
 8000692:	f041 4100 	orrcs.w	r1, r1, #2147483648	@ 0x80000000
 8000696:	bd30      	pop	{r4, r5, pc}
 8000698:	f514 0480 	adds.w	r4, r4, #4194304	@ 0x400000
 800069c:	bf3c      	itt	cc
 800069e:	f501 1180 	addcc.w	r1, r1, #1048576	@ 0x100000
 80006a2:	bd30      	popcc	{r4, r5, pc}
 80006a4:	f001 4500 	and.w	r5, r1, #2147483648	@ 0x80000000
 80006a8:	f045 41fe 	orr.w	r1, r5, #2130706432	@ 0x7f000000
 80006ac:	f441 0170 	orr.w	r1, r1, #15728640	@ 0xf00000
 80006b0:	f04f 0000 	mov.w	r0, #0
 80006b4:	bd30      	pop	{r4, r5, pc}
 80006b6:	ea7f 5c64 	mvns.w	ip, r4, asr #21
 80006ba:	bf1a      	itte	ne
 80006bc:	4619      	movne	r1, r3
 80006be:	4610      	movne	r0, r2
 80006c0:	ea7f 5c65 	mvnseq.w	ip, r5, asr #21
 80006c4:	bf1c      	itt	ne
 80006c6:	460b      	movne	r3, r1
 80006c8:	4602      	movne	r2, r0
 80006ca:	ea50 3401 	orrs.w	r4, r0, r1, lsl #12
 80006ce:	bf06      	itte	eq
 80006d0:	ea52 3503 	orrseq.w	r5, r2, r3, lsl #12
 80006d4:	ea91 0f03 	teqeq	r1, r3
 80006d8:	f441 2100 	orrne.w	r1, r1, #524288	@ 0x80000
 80006dc:	bd30      	pop	{r4, r5, pc}
 80006de:	bf00      	nop

080006e0 <__aeabi_ui2d>:
 80006e0:	f090 0f00 	teq	r0, #0
 80006e4:	bf04      	itt	eq
 80006e6:	2100      	moveq	r1, #0
 80006e8:	4770      	bxeq	lr
 80006ea:	b530      	push	{r4, r5, lr}
 80006ec:	f44f 6480 	mov.w	r4, #1024	@ 0x400
 80006f0:	f104 0432 	add.w	r4, r4, #50	@ 0x32
 80006f4:	f04f 0500 	mov.w	r5, #0
 80006f8:	f04f 0100 	mov.w	r1, #0
 80006fc:	e750      	b.n	80005a0 <__adddf3+0x138>
 80006fe:	bf00      	nop

08000700 <__aeabi_i2d>:
 8000700:	f090 0f00 	teq	r0, #0
 8000704:	bf04      	itt	eq
 8000706:	2100      	moveq	r1, #0
 8000708:	4770      	bxeq	lr
 800070a:	b530      	push	{r4, r5, lr}
 800070c:	f44f 6480 	mov.w	r4, #1024	@ 0x400
 8000710:	f104 0432 	add.w	r4, r4, #50	@ 0x32
 8000714:	f010 4500 	ands.w	r5, r0, #2147483648	@ 0x80000000
 8000718:	bf48      	it	mi
 800071a:	4240      	negmi	r0, r0
 800071c:	f04f 0100 	mov.w	r1, #0
 8000720:	e73e      	b.n	80005a0 <__adddf3+0x138>
 8000722:	bf00      	nop

08000724 <__aeabi_f2d>:
 8000724:	0042      	lsls	r2, r0, #1
 8000726:	ea4f 01e2 	mov.w	r1, r2, asr #3
 800072a:	ea4f 0131 	mov.w	r1, r1, rrx
 800072e:	ea4f 7002 	mov.w	r0, r2, lsl #28
 8000732:	bf1f      	itttt	ne
 8000734:	f012 437f 	andsne.w	r3, r2, #4278190080	@ 0xff000000
 8000738:	f093 4f7f 	teqne	r3, #4278190080	@ 0xff000000
 800073c:	f081 5160 	eorne.w	r1, r1, #939524096	@ 0x38000000
 8000740:	4770      	bxne	lr
 8000742:	f032 427f 	bics.w	r2, r2, #4278190080	@ 0xff000000
 8000746:	bf08      	it	eq
 8000748:	4770      	bxeq	lr
 800074a:	f093 4f7f 	teq	r3, #4278190080	@ 0xff000000
 800074e:	bf04      	itt	eq
 8000750:	f441 2100 	orreq.w	r1, r1, #524288	@ 0x80000
 8000754:	4770      	bxeq	lr
 8000756:	b530      	push	{r4, r5, lr}
 8000758:	f44f 7460 	mov.w	r4, #896	@ 0x380
 800075c:	f001 4500 	and.w	r5, r1, #2147483648	@ 0x80000000
 8000760:	f021 4100 	bic.w	r1, r1, #2147483648	@ 0x80000000
 8000764:	e71c      	b.n	80005a0 <__adddf3+0x138>
 8000766:	bf00      	nop

08000768 <__aeabi_ul2d>:
 8000768:	ea50 0201 	orrs.w	r2, r0, r1
 800076c:	bf08      	it	eq
 800076e:	4770      	bxeq	lr
 8000770:	b530      	push	{r4, r5, lr}
 8000772:	f04f 0500 	mov.w	r5, #0
 8000776:	e00a      	b.n	800078e <__aeabi_l2d+0x16>

08000778 <__aeabi_l2d>:
 8000778:	ea50 0201 	orrs.w	r2, r0, r1
 800077c:	bf08      	it	eq
 800077e:	4770      	bxeq	lr
 8000780:	b530      	push	{r4, r5, lr}
 8000782:	f011 4500 	ands.w	r5, r1, #2147483648	@ 0x80000000
 8000786:	d502      	bpl.n	800078e <__aeabi_l2d+0x16>
 8000788:	4240      	negs	r0, r0
 800078a:	eb61 0141 	sbc.w	r1, r1, r1, lsl #1
 800078e:	f44f 6480 	mov.w	r4, #1024	@ 0x400
 8000792:	f104 0432 	add.w	r4, r4, #50	@ 0x32
 8000796:	ea5f 5c91 	movs.w	ip, r1, lsr #22
 800079a:	f43f aed8 	beq.w	800054e <__adddf3+0xe6>
 800079e:	f04f 0203 	mov.w	r2, #3
 80007a2:	ea5f 0cdc 	movs.w	ip, ip, lsr #3
 80007a6:	bf18      	it	ne
 80007a8:	3203      	addne	r2, #3
 80007aa:	ea5f 0cdc 	movs.w	ip, ip, lsr #3
 80007ae:	bf18      	it	ne
 80007b0:	3203      	addne	r2, #3
 80007b2:	eb02 02dc 	add.w	r2, r2, ip, lsr #3
 80007b6:	f1c2 0320 	rsb	r3, r2, #32
 80007ba:	fa00 fc03 	lsl.w	ip, r0, r3
 80007be:	fa20 f002 	lsr.w	r0, r0, r2
 80007c2:	fa01 fe03 	lsl.w	lr, r1, r3
 80007c6:	ea40 000e 	orr.w	r0, r0, lr
 80007ca:	fa21 f102 	lsr.w	r1, r1, r2
 80007ce:	4414      	add	r4, r2
 80007d0:	e6bd      	b.n	800054e <__adddf3+0xe6>
 80007d2:	bf00      	nop

080007d4 <__gedf2>:
 80007d4:	f04f 3cff 	mov.w	ip, #4294967295	@ 0xffffffff
 80007d8:	e006      	b.n	80007e8 <__cmpdf2+0x4>
 80007da:	bf00      	nop

080007dc <__ledf2>:
 80007dc:	f04f 0c01 	mov.w	ip, #1
 80007e0:	e002      	b.n	80007e8 <__cmpdf2+0x4>
 80007e2:	bf00      	nop

080007e4 <__cmpdf2>:
 80007e4:	f04f 0c01 	mov.w	ip, #1
 80007e8:	f84d cd04 	str.w	ip, [sp, #-4]!
 80007ec:	ea4f 0c41 	mov.w	ip, r1, lsl #1
 80007f0:	ea7f 5c6c 	mvns.w	ip, ip, asr #21
 80007f4:	ea4f 0c43 	mov.w	ip, r3, lsl #1
 80007f8:	bf18      	it	ne
 80007fa:	ea7f 5c6c 	mvnsne.w	ip, ip, asr #21
 80007fe:	d01b      	beq.n	8000838 <__cmpdf2+0x54>
 8000800:	b001      	add	sp, #4
 8000802:	ea50 0c41 	orrs.w	ip, r0, r1, lsl #1
 8000806:	bf0c      	ite	eq
 8000808:	ea52 0c43 	orrseq.w	ip, r2, r3, lsl #1
 800080c:	ea91 0f03 	teqne	r1, r3
 8000810:	bf02      	ittt	eq
 8000812:	ea90 0f02 	teqeq	r0, r2
 8000816:	2000      	moveq	r0, #0
 8000818:	4770      	bxeq	lr
 800081a:	f110 0f00 	cmn.w	r0, #0
 800081e:	ea91 0f03 	teq	r1, r3
 8000822:	bf58      	it	pl
 8000824:	4299      	cmppl	r1, r3
 8000826:	bf08      	it	eq
 8000828:	4290      	cmpeq	r0, r2
 800082a:	bf2c      	ite	cs
 800082c:	17d8      	asrcs	r0, r3, #31
 800082e:	ea6f 70e3 	mvncc.w	r0, r3, asr #31
 8000832:	f040 0001 	orr.w	r0, r0, #1
 8000836:	4770      	bx	lr
 8000838:	ea4f 0c41 	mov.w	ip, r1, lsl #1
 800083c:	ea7f 5c6c 	mvns.w	ip, ip, asr #21
 8000840:	d102      	bne.n	8000848 <__cmpdf2+0x64>
 8000842:	ea50 3c01 	orrs.w	ip, r0, r1, lsl #12
 8000846:	d107      	bne.n	8000858 <__cmpdf2+0x74>
 8000848:	ea4f 0c43 	mov.w	ip, r3, lsl #1
 800084c:	ea7f 5c6c 	mvns.w	ip, ip, asr #21
 8000850:	d1d6      	bne.n	8000800 <__cmpdf2+0x1c>
 8000852:	ea52 3c03 	orrs.w	ip, r2, r3, lsl #12
 8000856:	d0d3      	beq.n	8000800 <__cmpdf2+0x1c>
 8000858:	f85d 0b04 	ldr.w	r0, [sp], #4
 800085c:	4770      	bx	lr
 800085e:	bf00      	nop

08000860 <__aeabi_cdrcmple>:
 8000860:	4684      	mov	ip, r0
 8000862:	4610      	mov	r0, r2
 8000864:	4662      	mov	r2, ip
 8000866:	468c      	mov	ip, r1
 8000868:	4619      	mov	r1, r3
 800086a:	4663      	mov	r3, ip
 800086c:	e000      	b.n	8000870 <__aeabi_cdcmpeq>
 800086e:	bf00      	nop

08000870 <__aeabi_cdcmpeq>:
 8000870:	b501      	push	{r0, lr}
 8000872:	f7ff ffb7 	bl	80007e4 <__cmpdf2>
 8000876:	2800      	cmp	r0, #0
 8000878:	bf48      	it	mi
 800087a:	f110 0f00 	cmnmi.w	r0, #0
 800087e:	bd01      	pop	{r0, pc}

08000880 <__aeabi_dcmpeq>:
 8000880:	f84d ed08 	str.w	lr, [sp, #-8]!
 8000884:	f7ff fff4 	bl	8000870 <__aeabi_cdcmpeq>
 8000888:	bf0c      	ite	eq
 800088a:	2001      	moveq	r0, #1
 800088c:	2000      	movne	r0, #0
 800088e:	f85d fb08 	ldr.w	pc, [sp], #8
 8000892:	bf00      	nop

08000894 <__aeabi_dcmplt>:
 8000894:	f84d ed08 	str.w	lr, [sp, #-8]!
 8000898:	f7ff ffea 	bl	8000870 <__aeabi_cdcmpeq>
 800089c:	bf34      	ite	cc
 800089e:	2001      	movcc	r0, #1
 80008a0:	2000      	movcs	r0, #0
 80008a2:	f85d fb08 	ldr.w	pc, [sp], #8
 80008a6:	bf00      	nop

080008a8 <__aeabi_dcmple>:
 80008a8:	f84d ed08 	str.w	lr, [sp, #-8]!
 80008ac:	f7ff ffe0 	bl	8000870 <__aeabi_cdcmpeq>
 80008b0:	bf94      	ite	ls
 80008b2:	2001      	movls	r0, #1
 80008b4:	2000      	movhi	r0, #0
 80008b6:	f85d fb08 	ldr.w	pc, [sp], #8
 80008ba:	bf00      	nop

080008bc <__aeabi_dcmpge>:
 80008bc:	f84d ed08 	str.w	lr, [sp, #-8]!
 80008c0:	f7ff ffce 	bl	8000860 <__aeabi_cdrcmple>
 80008c4:	bf94      	ite	ls
 80008c6:	2001      	movls	r0, #1
 80008c8:	2000      	movhi	r0, #0
 80008ca:	f85d fb08 	ldr.w	pc, [sp], #8
 80008ce:	bf00      	nop

080008d0 <__aeabi_dcmpgt>:
 80008d0:	f84d ed08 	str.w	lr, [sp, #-8]!
 80008d4:	f7ff ffc4 	bl	8000860 <__aeabi_cdrcmple>
 80008d8:	bf34      	ite	cc
 80008da:	2001      	movcc	r0, #1
 80008dc:	2000      	movcs	r0, #0
 80008de:	f85d fb08 	ldr.w	pc, [sp], #8
 80008e2:	bf00      	nop

080008e4 <__aeabi_d2uiz>:
 80008e4:	004a      	lsls	r2, r1, #1
 80008e6:	d211      	bcs.n	800090c <__aeabi_d2uiz+0x28>
 80008e8:	f512 1200 	adds.w	r2, r2, #2097152	@ 0x200000
 80008ec:	d211      	bcs.n	8000912 <__aeabi_d2uiz+0x2e>
 80008ee:	d50d      	bpl.n	800090c <__aeabi_d2uiz+0x28>
 80008f0:	f46f 7378 	mvn.w	r3, #992	@ 0x3e0
 80008f4:	ebb3 5262 	subs.w	r2, r3, r2, asr #21
 80008f8:	d40e      	bmi.n	8000918 <__aeabi_d2uiz+0x34>
 80008fa:	ea4f 23c1 	mov.w	r3, r1, lsl #11
 80008fe:	f043 4300 	orr.w	r3, r3, #2147483648	@ 0x80000000
 8000902:	ea43 5350 	orr.w	r3, r3, r0, lsr #21
 8000906:	fa23 f002 	lsr.w	r0, r3, r2
 800090a:	4770      	bx	lr
 800090c:	f04f 0000 	mov.w	r0, #0
 8000910:	4770      	bx	lr
 8000912:	ea50 3001 	orrs.w	r0, r0, r1, lsl #12
 8000916:	d102      	bne.n	800091e <__aeabi_d2uiz+0x3a>
 8000918:	f04f 30ff 	mov.w	r0, #4294967295	@ 0xffffffff
 800091c:	4770      	bx	lr
 800091e:	f04f 0000 	mov.w	r0, #0
 8000922:	4770      	bx	lr

08000924 <__aeabi_d2f>:
 8000924:	ea4f 0241 	mov.w	r2, r1, lsl #1
 8000928:	f1b2 43e0 	subs.w	r3, r2, #1879048192	@ 0x70000000
 800092c:	bf24      	itt	cs
 800092e:	f5b3 1c00 	subscs.w	ip, r3, #2097152	@ 0x200000
 8000932:	f1dc 5cfe 	rsbscs	ip, ip, #532676608	@ 0x1fc00000
 8000936:	d90d      	bls.n	8000954 <__aeabi_d2f+0x30>
 8000938:	f001 4c00 	and.w	ip, r1, #2147483648	@ 0x80000000
 800093c:	ea4f 02c0 	mov.w	r2, r0, lsl #3
 8000940:	ea4c 7050 	orr.w	r0, ip, r0, lsr #29
 8000944:	f1b2 4f00 	cmp.w	r2, #2147483648	@ 0x80000000
 8000948:	eb40 0083 	adc.w	r0, r0, r3, lsl #2
 800094c:	bf08      	it	eq
 800094e:	f020 0001 	biceq.w	r0, r0, #1
 8000952:	4770      	bx	lr
 8000954:	f011 4f80 	tst.w	r1, #1073741824	@ 0x40000000
 8000958:	d121      	bne.n	800099e <__aeabi_d2f+0x7a>
 800095a:	f113 7238 	adds.w	r2, r3, #48234496	@ 0x2e00000
 800095e:	bfbc      	itt	lt
 8000960:	f001 4000 	andlt.w	r0, r1, #2147483648	@ 0x80000000
 8000964:	4770      	bxlt	lr
 8000966:	f441 1180 	orr.w	r1, r1, #1048576	@ 0x100000
 800096a:	ea4f 5252 	mov.w	r2, r2, lsr #21
 800096e:	f1c2 0218 	rsb	r2, r2, #24
 8000972:	f1c2 0c20 	rsb	ip, r2, #32
 8000976:	fa10 f30c 	lsls.w	r3, r0, ip
 800097a:	fa20 f002 	lsr.w	r0, r0, r2
 800097e:	bf18      	it	ne
 8000980:	f040 0001 	orrne.w	r0, r0, #1
 8000984:	ea4f 23c1 	mov.w	r3, r1, lsl #11
 8000988:	ea4f 23d3 	mov.w	r3, r3, lsr #11
 800098c:	fa03 fc0c 	lsl.w	ip, r3, ip
 8000990:	ea40 000c 	orr.w	r0, r0, ip
 8000994:	fa23 f302 	lsr.w	r3, r3, r2
 8000998:	ea4f 0343 	mov.w	r3, r3, lsl #1
 800099c:	e7cc      	b.n	8000938 <__aeabi_d2f+0x14>
 800099e:	ea7f 5362 	mvns.w	r3, r2, asr #21
 80009a2:	d107      	bne.n	80009b4 <__aeabi_d2f+0x90>
 80009a4:	ea50 3301 	orrs.w	r3, r0, r1, lsl #12
 80009a8:	bf1e      	ittt	ne
 80009aa:	f04f 40fe 	movne.w	r0, #2130706432	@ 0x7f000000
 80009ae:	f440 0040 	orrne.w	r0, r0, #12582912	@ 0xc00000
 80009b2:	4770      	bxne	lr
 80009b4:	f001 4000 	and.w	r0, r1, #2147483648	@ 0x80000000
 80009b8:	f040 40fe 	orr.w	r0, r0, #2130706432	@ 0x7f000000
 80009bc:	f440 0000 	orr.w	r0, r0, #8388608	@ 0x800000
 80009c0:	4770      	bx	lr
 80009c2:	bf00      	nop

080009c4 <__NVIC_EnableIRQ>:
  \details Enables a device specific interrupt in the NVIC interrupt controller.
  \param [in]      IRQn  Device specific interrupt number.
  \note    IRQn must not be negative.
 */
__STATIC_INLINE void __NVIC_EnableIRQ(IRQn_Type IRQn)
{
 80009c4:	b480      	push	{r7}
 80009c6:	b083      	sub	sp, #12
 80009c8:	af00      	add	r7, sp, #0
 80009ca:	4603      	mov	r3, r0
 80009cc:	71fb      	strb	r3, [r7, #7]
  if ((int32_t)(IRQn) >= 0)
 80009ce:	f997 3007 	ldrsb.w	r3, [r7, #7]
 80009d2:	2b00      	cmp	r3, #0
 80009d4:	db0b      	blt.n	80009ee <__NVIC_EnableIRQ+0x2a>
  {
    __COMPILER_BARRIER();
    NVIC->ISER[(((uint32_t)IRQn) >> 5UL)] = (uint32_t)(1UL << (((uint32_t)IRQn) & 0x1FUL));
 80009d6:	79fb      	ldrb	r3, [r7, #7]
 80009d8:	f003 021f 	and.w	r2, r3, #31
 80009dc:	4907      	ldr	r1, [pc, #28]	@ (80009fc <__NVIC_EnableIRQ+0x38>)
 80009de:	f997 3007 	ldrsb.w	r3, [r7, #7]
 80009e2:	095b      	lsrs	r3, r3, #5
 80009e4:	2001      	movs	r0, #1
 80009e6:	fa00 f202 	lsl.w	r2, r0, r2
 80009ea:	f841 2023 	str.w	r2, [r1, r3, lsl #2]
    __COMPILER_BARRIER();
  }
}
 80009ee:	bf00      	nop
 80009f0:	370c      	adds	r7, #12
 80009f2:	46bd      	mov	sp, r7
 80009f4:	f85d 7b04 	ldr.w	r7, [sp], #4
 80009f8:	4770      	bx	lr
 80009fa:	bf00      	nop
 80009fc:	e000e100 	.word	0xe000e100

08000a00 <initGPIO>:
#include "main.h"
#include "led.h"



void initGPIO(void) {
 8000a00:	b480      	push	{r7}
 8000a02:	af00      	add	r7, sp, #0
    RCC->AHB1ENR |= RCC_AHB1ENR_GPIOAEN;
 8000a04:	4b28      	ldr	r3, [pc, #160]	@ (8000aa8 <initGPIO+0xa8>)
 8000a06:	6b1b      	ldr	r3, [r3, #48]	@ 0x30
 8000a08:	4a27      	ldr	r2, [pc, #156]	@ (8000aa8 <initGPIO+0xa8>)
 8000a0a:	f043 0301 	orr.w	r3, r3, #1
 8000a0e:	6313      	str	r3, [r2, #48]	@ 0x30
    RCC->AHB1ENR |= RCC_AHB1ENR_GPIOBEN;
 8000a10:	4b25      	ldr	r3, [pc, #148]	@ (8000aa8 <initGPIO+0xa8>)
 8000a12:	6b1b      	ldr	r3, [r3, #48]	@ 0x30
 8000a14:	4a24      	ldr	r2, [pc, #144]	@ (8000aa8 <initGPIO+0xa8>)
 8000a16:	f043 0302 	orr.w	r3, r3, #2
 8000a1a:	6313      	str	r3, [r2, #48]	@ 0x30
    RCC->AHB1ENR |= RCC_AHB1ENR_GPIOCEN;
 8000a1c:	4b22      	ldr	r3, [pc, #136]	@ (8000aa8 <initGPIO+0xa8>)
 8000a1e:	6b1b      	ldr	r3, [r3, #48]	@ 0x30
 8000a20:	4a21      	ldr	r2, [pc, #132]	@ (8000aa8 <initGPIO+0xa8>)
 8000a22:	f043 0304 	orr.w	r3, r3, #4
 8000a26:	6313      	str	r3, [r2, #48]	@ 0x30

    GPIOA->MODER |= (0x1U << GPIO_MODER_MODE5_Pos);
 8000a28:	4b20      	ldr	r3, [pc, #128]	@ (8000aac <initGPIO+0xac>)
 8000a2a:	681b      	ldr	r3, [r3, #0]
 8000a2c:	4a1f      	ldr	r2, [pc, #124]	@ (8000aac <initGPIO+0xac>)
 8000a2e:	f443 6380 	orr.w	r3, r3, #1024	@ 0x400
 8000a32:	6013      	str	r3, [r2, #0]
    GPIOA->OTYPER |= (0x0U << GPIO_OTYPER_OT5_Pos);
 8000a34:	4b1d      	ldr	r3, [pc, #116]	@ (8000aac <initGPIO+0xac>)
 8000a36:	4a1d      	ldr	r2, [pc, #116]	@ (8000aac <initGPIO+0xac>)
 8000a38:	685b      	ldr	r3, [r3, #4]
 8000a3a:	6053      	str	r3, [r2, #4]
    GPIOA->OSPEEDR |= (0x0U << GPIO_OSPEEDR_OSPEED5_Pos);
 8000a3c:	4b1b      	ldr	r3, [pc, #108]	@ (8000aac <initGPIO+0xac>)
 8000a3e:	4a1b      	ldr	r2, [pc, #108]	@ (8000aac <initGPIO+0xac>)
 8000a40:	689b      	ldr	r3, [r3, #8]
 8000a42:	6093      	str	r3, [r2, #8]
    GPIOA->PUPDR |= (0x0U << GPIO_PUPDR_PUPD5_Pos);
 8000a44:	4b19      	ldr	r3, [pc, #100]	@ (8000aac <initGPIO+0xac>)
 8000a46:	4a19      	ldr	r2, [pc, #100]	@ (8000aac <initGPIO+0xac>)
 8000a48:	68db      	ldr	r3, [r3, #12]
 8000a4a:	60d3      	str	r3, [r2, #12]

    // PB0-4 are A,B,C,D,E pins
    GPIOB->MODER &= ~(GPIO_MODER_MODE0 | GPIO_MODER_MODE1 | GPIO_MODER_MODE2 | GPIO_MODER_MODE3 | GPIO_MODER_MODE4);
 8000a4c:	4b18      	ldr	r3, [pc, #96]	@ (8000ab0 <initGPIO+0xb0>)
 8000a4e:	681b      	ldr	r3, [r3, #0]
 8000a50:	4a17      	ldr	r2, [pc, #92]	@ (8000ab0 <initGPIO+0xb0>)
 8000a52:	f423 737f 	bic.w	r3, r3, #1020	@ 0x3fc
 8000a56:	f023 0303 	bic.w	r3, r3, #3
 8000a5a:	6013      	str	r3, [r2, #0]
    GPIOB->MODER |= GPIO_MODER_MODE0_0 |
 8000a5c:	4b14      	ldr	r3, [pc, #80]	@ (8000ab0 <initGPIO+0xb0>)
 8000a5e:	681b      	ldr	r3, [r3, #0]
 8000a60:	4a13      	ldr	r2, [pc, #76]	@ (8000ab0 <initGPIO+0xb0>)
 8000a62:	f443 73aa 	orr.w	r3, r3, #340	@ 0x154
 8000a66:	f043 0301 	orr.w	r3, r3, #1
 8000a6a:	6013      	str	r3, [r2, #0]
                    GPIO_MODER_MODE1_0 |
                    GPIO_MODER_MODE2_0 |
                    GPIO_MODER_MODE3_0 |
                    GPIO_MODER_MODE4_0;

    GPIOB->OSPEEDR |= GPIO_OSPEEDR_OSPEED0_0 | GPIO_OSPEEDR_OSPEED0_1 |
 8000a6c:	4b10      	ldr	r3, [pc, #64]	@ (8000ab0 <initGPIO+0xb0>)
 8000a6e:	689b      	ldr	r3, [r3, #8]
 8000a70:	4a0f      	ldr	r2, [pc, #60]	@ (8000ab0 <initGPIO+0xb0>)
 8000a72:	ea6f 2393 	mvn.w	r3, r3, lsr #10
 8000a76:	ea6f 2383 	mvn.w	r3, r3, lsl #10
 8000a7a:	6093      	str	r3, [r2, #8]
                      GPIO_OSPEEDR_OSPEED2_0 | GPIO_OSPEEDR_OSPEED2_1 |
                      GPIO_OSPEEDR_OSPEED3_0 | GPIO_OSPEEDR_OSPEED3_1 |
                      GPIO_OSPEEDR_OSPEED4_0 | GPIO_OSPEEDR_OSPEED4_1;

    // PC0-PC5 are RGB pins
    GPIOC->MODER |= GPIO_MODER_MODE0_0 |
 8000a7c:	4b0d      	ldr	r3, [pc, #52]	@ (8000ab4 <initGPIO+0xb4>)
 8000a7e:	681b      	ldr	r3, [r3, #0]
 8000a80:	4a0c      	ldr	r2, [pc, #48]	@ (8000ab4 <initGPIO+0xb4>)
 8000a82:	f443 63aa 	orr.w	r3, r3, #1360	@ 0x550
 8000a86:	f043 0305 	orr.w	r3, r3, #5
 8000a8a:	6013      	str	r3, [r2, #0]
                    GPIO_MODER_MODE2_0 |
                    GPIO_MODER_MODE3_0 |
                    GPIO_MODER_MODE4_0 |
                    GPIO_MODER_MODE5_0;

    GPIOC->OSPEEDR |= GPIO_OSPEEDR_OSPEED0_0 | GPIO_OSPEEDR_OSPEED0_1 |
 8000a8c:	4b09      	ldr	r3, [pc, #36]	@ (8000ab4 <initGPIO+0xb4>)
 8000a8e:	689b      	ldr	r3, [r3, #8]
 8000a90:	4a08      	ldr	r2, [pc, #32]	@ (8000ab4 <initGPIO+0xb4>)
 8000a92:	ea6f 3313 	mvn.w	r3, r3, lsr #12
 8000a96:	ea6f 3303 	mvn.w	r3, r3, lsl #12
 8000a9a:	6093      	str	r3, [r2, #8]
    GPIO_InitStruct.Pin = BOTON_Pin;
    GPIO_InitStruct.Mode = GPIO_MODE_IT_FALLING;
    GPIO_InitStruct.Pull = GPIO_NOPULL;
    HAL_GPIO_Init(BOTON_GPIO_Port, &GPIO_InitStruct);
    */
}
 8000a9c:	bf00      	nop
 8000a9e:	46bd      	mov	sp, r7
 8000aa0:	f85d 7b04 	ldr.w	r7, [sp], #4
 8000aa4:	4770      	bx	lr
 8000aa6:	bf00      	nop
 8000aa8:	40023800 	.word	0x40023800
 8000aac:	40020000 	.word	0x40020000
 8000ab0:	40020400 	.word	0x40020400
 8000ab4:	40020800 	.word	0x40020800

08000ab8 <initDMA>:

void initDMA(void) {
 8000ab8:	b580      	push	{r7, lr}
 8000aba:	af00      	add	r7, sp, #0
     * Memory Inc
     * 1byte-1byte transfers
     * Memory to Peripheral
     */

    RCC->AHB1ENR |= RCC_AHB1ENR_DMA2EN;
 8000abc:	4b1a      	ldr	r3, [pc, #104]	@ (8000b28 <initDMA+0x70>)
 8000abe:	6b1b      	ldr	r3, [r3, #48]	@ 0x30
 8000ac0:	4a19      	ldr	r2, [pc, #100]	@ (8000b28 <initDMA+0x70>)
 8000ac2:	f443 0380 	orr.w	r3, r3, #4194304	@ 0x400000
 8000ac6:	6313      	str	r3, [r2, #48]	@ 0x30

    DMA2_Stream2->CR |= (7<<DMA_SxCR_CHSEL_Pos) | DMA_SxCR_DBM | DMA_SxCR_PL_0 | DMA_SxCR_PL_1 | DMA_SxCR_MINC | DMA_SxCR_DIR_0;
 8000ac8:	4b18      	ldr	r3, [pc, #96]	@ (8000b2c <initDMA+0x74>)
 8000aca:	681a      	ldr	r2, [r3, #0]
 8000acc:	4917      	ldr	r1, [pc, #92]	@ (8000b2c <initDMA+0x74>)
 8000ace:	4b18      	ldr	r3, [pc, #96]	@ (8000b30 <initDMA+0x78>)
 8000ad0:	4313      	orrs	r3, r2
 8000ad2:	600b      	str	r3, [r1, #0]
    DMA2_Stream2->NDTR = 0x4000; // 64 col, 8 Bits per colour channel, 32 rows
 8000ad4:	4b15      	ldr	r3, [pc, #84]	@ (8000b2c <initDMA+0x74>)
 8000ad6:	f44f 4280 	mov.w	r2, #16384	@ 0x4000
 8000ada:	605a      	str	r2, [r3, #4]
    DMA2_Stream2->PAR = (uint32_t)&(GPIOC->ODR);
 8000adc:	4b13      	ldr	r3, [pc, #76]	@ (8000b2c <initDMA+0x74>)
 8000ade:	4a15      	ldr	r2, [pc, #84]	@ (8000b34 <initDMA+0x7c>)
 8000ae0:	609a      	str	r2, [r3, #8]
    DMA2_Stream2->M0AR = (uint32_t)buffer1;
 8000ae2:	4b12      	ldr	r3, [pc, #72]	@ (8000b2c <initDMA+0x74>)
 8000ae4:	4a14      	ldr	r2, [pc, #80]	@ (8000b38 <initDMA+0x80>)
 8000ae6:	60da      	str	r2, [r3, #12]
    DMA2_Stream2->M1AR = (uint32_t)buffer2;
 8000ae8:	4b10      	ldr	r3, [pc, #64]	@ (8000b2c <initDMA+0x74>)
 8000aea:	4a14      	ldr	r2, [pc, #80]	@ (8000b3c <initDMA+0x84>)
 8000aec:	611a      	str	r2, [r3, #16]
    DMA2_Stream2->FCR |= DMA_SxFCR_DMDIS; // turn on the FIFO
 8000aee:	4b0f      	ldr	r3, [pc, #60]	@ (8000b2c <initDMA+0x74>)
 8000af0:	695b      	ldr	r3, [r3, #20]
 8000af2:	4a0e      	ldr	r2, [pc, #56]	@ (8000b2c <initDMA+0x74>)
 8000af4:	f043 0304 	orr.w	r3, r3, #4
 8000af8:	6153      	str	r3, [r2, #20]
    DMA2_Stream2->CR |= DMA_SxCR_TCIE; // enable the transfer complete interrupt
 8000afa:	4b0c      	ldr	r3, [pc, #48]	@ (8000b2c <initDMA+0x74>)
 8000afc:	681b      	ldr	r3, [r3, #0]
 8000afe:	4a0b      	ldr	r2, [pc, #44]	@ (8000b2c <initDMA+0x74>)
 8000b00:	f043 0310 	orr.w	r3, r3, #16
 8000b04:	6013      	str	r3, [r2, #0]
    DMA2->LIFCR |= DMA_LIFCR_CTCIF2; // make sure the interrupt flag is clear
 8000b06:	4b0e      	ldr	r3, [pc, #56]	@ (8000b40 <initDMA+0x88>)
 8000b08:	689b      	ldr	r3, [r3, #8]
 8000b0a:	4a0d      	ldr	r2, [pc, #52]	@ (8000b40 <initDMA+0x88>)
 8000b0c:	f443 1300 	orr.w	r3, r3, #2097152	@ 0x200000
 8000b10:	6093      	str	r3, [r2, #8]

    NVIC_EnableIRQ(DMA2_Stream2_IRQn);
 8000b12:	203a      	movs	r0, #58	@ 0x3a
 8000b14:	f7ff ff56 	bl	80009c4 <__NVIC_EnableIRQ>

    DMA2_Stream2->CR |= DMA_SxCR_EN; // enable the stream
 8000b18:	4b04      	ldr	r3, [pc, #16]	@ (8000b2c <initDMA+0x74>)
 8000b1a:	681b      	ldr	r3, [r3, #0]
 8000b1c:	4a03      	ldr	r2, [pc, #12]	@ (8000b2c <initDMA+0x74>)
 8000b1e:	f043 0301 	orr.w	r3, r3, #1
 8000b22:	6013      	str	r3, [r2, #0]
}
 8000b24:	bf00      	nop
 8000b26:	bd80      	pop	{r7, pc}
 8000b28:	40023800 	.word	0x40023800
 8000b2c:	40026440 	.word	0x40026440
 8000b30:	0e070440 	.word	0x0e070440
 8000b34:	40020814 	.word	0x40020814
 8000b38:	2000349c 	.word	0x2000349c
 8000b3c:	2000749c 	.word	0x2000749c
 8000b40:	40026400 	.word	0x40026400

08000b44 <initClock>:

void initClock(void) {
 8000b44:	b580      	push	{r7, lr}
 8000b46:	af00      	add	r7, sp, #0
    // 5. Set AHB/APB1/APB2 prescalers
    // 6. Wait for PLL lock
    // 7. Select PLL as sysclock
    // 8. Call SystemCoreClockUpdate();

    RCC->APB1ENR |= RCC_APB1ENR_PWREN;
 8000b48:	4b31      	ldr	r3, [pc, #196]	@ (8000c10 <initClock+0xcc>)
 8000b4a:	6c1b      	ldr	r3, [r3, #64]	@ 0x40
 8000b4c:	4a30      	ldr	r2, [pc, #192]	@ (8000c10 <initClock+0xcc>)
 8000b4e:	f043 5380 	orr.w	r3, r3, #268435456	@ 0x10000000
 8000b52:	6413      	str	r3, [r2, #64]	@ 0x40

    // Enable the HSE in bypass mode (there is a 8MHz signal coming from the ST-LINK)
    RCC->CR |= RCC_CR_HSEBYP | RCC_CR_HSEON;
 8000b54:	4b2e      	ldr	r3, [pc, #184]	@ (8000c10 <initClock+0xcc>)
 8000b56:	681b      	ldr	r3, [r3, #0]
 8000b58:	4a2d      	ldr	r2, [pc, #180]	@ (8000c10 <initClock+0xcc>)
 8000b5a:	f443 23a0 	orr.w	r3, r3, #327680	@ 0x50000
 8000b5e:	6013      	str	r3, [r2, #0]
    while(!(RCC->CR & RCC_CR_HSERDY));
 8000b60:	bf00      	nop
 8000b62:	4b2b      	ldr	r3, [pc, #172]	@ (8000c10 <initClock+0xcc>)
 8000b64:	681b      	ldr	r3, [r3, #0]
 8000b66:	f403 3300 	and.w	r3, r3, #131072	@ 0x20000
 8000b6a:	2b00      	cmp	r3, #0
 8000b6c:	d0f9      	beq.n	8000b62 <initClock+0x1e>

    // Set the main PLL M, N, P, Q, R, and HSE as the input
    // M = 4, N = 180, P = 2 = 180MHz SYSCLK
    // Q = 8, R = 4 (Q & R not used)
    RCC->PLLCFGR = RCC_PLLCFGR_PLLM_2 | (180 << RCC_PLLCFGR_PLLN_Pos) | (0 << RCC_PLLCFGR_PLLP_Pos) | RCC_PLLCFGR_PLLQ_3 | RCC_PLLCFGR_PLLR_2 | RCC_PLLCFGR_PLLSRC_HSE;
 8000b6e:	4b28      	ldr	r3, [pc, #160]	@ (8000c10 <initClock+0xcc>)
 8000b70:	4a28      	ldr	r2, [pc, #160]	@ (8000c14 <initClock+0xd0>)
 8000b72:	605a      	str	r2, [r3, #4]
    RCC->CR |= RCC_CR_PLLON;
 8000b74:	4b26      	ldr	r3, [pc, #152]	@ (8000c10 <initClock+0xcc>)
 8000b76:	681b      	ldr	r3, [r3, #0]
 8000b78:	4a25      	ldr	r2, [pc, #148]	@ (8000c10 <initClock+0xcc>)
 8000b7a:	f043 7380 	orr.w	r3, r3, #16777216	@ 0x1000000
 8000b7e:	6013      	str	r3, [r2, #0]

    // enable and switch on overdrive
    PWR->CR |= PWR_CR_ODEN;
 8000b80:	4b25      	ldr	r3, [pc, #148]	@ (8000c18 <initClock+0xd4>)
 8000b82:	681b      	ldr	r3, [r3, #0]
 8000b84:	4a24      	ldr	r2, [pc, #144]	@ (8000c18 <initClock+0xd4>)
 8000b86:	f443 3380 	orr.w	r3, r3, #65536	@ 0x10000
 8000b8a:	6013      	str	r3, [r2, #0]
    while(!(PWR->CSR & PWR_CSR_ODRDY));
 8000b8c:	bf00      	nop
 8000b8e:	4b22      	ldr	r3, [pc, #136]	@ (8000c18 <initClock+0xd4>)
 8000b90:	685b      	ldr	r3, [r3, #4]
 8000b92:	f403 3380 	and.w	r3, r3, #65536	@ 0x10000
 8000b96:	2b00      	cmp	r3, #0
 8000b98:	d0f9      	beq.n	8000b8e <initClock+0x4a>

    PWR->CR |= PWR_CR_ODSWEN;
 8000b9a:	4b1f      	ldr	r3, [pc, #124]	@ (8000c18 <initClock+0xd4>)
 8000b9c:	681b      	ldr	r3, [r3, #0]
 8000b9e:	4a1e      	ldr	r2, [pc, #120]	@ (8000c18 <initClock+0xd4>)
 8000ba0:	f443 3300 	orr.w	r3, r3, #131072	@ 0x20000
 8000ba4:	6013      	str	r3, [r2, #0]
    while(!(PWR->CSR & PWR_CSR_ODSWRDY));
 8000ba6:	bf00      	nop
 8000ba8:	4b1b      	ldr	r3, [pc, #108]	@ (8000c18 <initClock+0xd4>)
 8000baa:	685b      	ldr	r3, [r3, #4]
 8000bac:	f403 3300 	and.w	r3, r3, #131072	@ 0x20000
 8000bb0:	2b00      	cmp	r3, #0
 8000bb2:	d0f9      	beq.n	8000ba8 <initClock+0x64>

    // Set the flash wait time
    FLASH->ACR |= FLASH_ACR_LATENCY_5WS;
 8000bb4:	4b19      	ldr	r3, [pc, #100]	@ (8000c1c <initClock+0xd8>)
 8000bb6:	681b      	ldr	r3, [r3, #0]
 8000bb8:	4a18      	ldr	r2, [pc, #96]	@ (8000c1c <initClock+0xd8>)
 8000bba:	f043 0305 	orr.w	r3, r3, #5
 8000bbe:	6013      	str	r3, [r2, #0]
    if((FLASH->ACR & FLASH_ACR_LATENCY) != FLASH_ACR_LATENCY_5WS) {
 8000bc0:	4b16      	ldr	r3, [pc, #88]	@ (8000c1c <initClock+0xd8>)
 8000bc2:	681b      	ldr	r3, [r3, #0]
 8000bc4:	f003 030f 	and.w	r3, r3, #15
 8000bc8:	2b05      	cmp	r3, #5
 8000bca:	d001      	beq.n	8000bd0 <initClock+0x8c>
       Error_Handler();
 8000bcc:	f001 fefa 	bl	80029c4 <Error_Handler>
    }

    // set APB prescalers
    // APB1 = 4, APB2 = 2
    // 45MHz and 90Mhz
    RCC->CFGR |= RCC_CFGR_PPRE1_DIV4 | RCC_CFGR_PPRE2_DIV2;
 8000bd0:	4b0f      	ldr	r3, [pc, #60]	@ (8000c10 <initClock+0xcc>)
 8000bd2:	689b      	ldr	r3, [r3, #8]
 8000bd4:	4a0e      	ldr	r2, [pc, #56]	@ (8000c10 <initClock+0xcc>)
 8000bd6:	f443 4314 	orr.w	r3, r3, #37888	@ 0x9400
 8000bda:	6093      	str	r3, [r2, #8]

    // wait for PLL lock
    while(!(RCC->CR & RCC_CR_PLLRDY));
 8000bdc:	bf00      	nop
 8000bde:	4b0c      	ldr	r3, [pc, #48]	@ (8000c10 <initClock+0xcc>)
 8000be0:	681b      	ldr	r3, [r3, #0]
 8000be2:	f003 7300 	and.w	r3, r3, #33554432	@ 0x2000000
 8000be6:	2b00      	cmp	r3, #0
 8000be8:	d0f9      	beq.n	8000bde <initClock+0x9a>

    // Switch SYSCLK to PLL
    RCC->CFGR |= RCC_CFGR_SW_PLL;
 8000bea:	4b09      	ldr	r3, [pc, #36]	@ (8000c10 <initClock+0xcc>)
 8000bec:	689b      	ldr	r3, [r3, #8]
 8000bee:	4a08      	ldr	r2, [pc, #32]	@ (8000c10 <initClock+0xcc>)
 8000bf0:	f043 0302 	orr.w	r3, r3, #2
 8000bf4:	6093      	str	r3, [r2, #8]


    SystemCoreClockUpdate();
 8000bf6:	f001 ffd1 	bl	8002b9c <SystemCoreClockUpdate>

    // set TIMPRE so the timers run at 180MHz
    RCC->DCKCFGR |= RCC_DCKCFGR_TIMPRE;
 8000bfa:	4b05      	ldr	r3, [pc, #20]	@ (8000c10 <initClock+0xcc>)
 8000bfc:	f8d3 308c 	ldr.w	r3, [r3, #140]	@ 0x8c
 8000c00:	4a03      	ldr	r2, [pc, #12]	@ (8000c10 <initClock+0xcc>)
 8000c02:	f043 7380 	orr.w	r3, r3, #16777216	@ 0x1000000
 8000c06:	f8c2 308c 	str.w	r3, [r2, #140]	@ 0x8c
}
 8000c0a:	bf00      	nop
 8000c0c:	bd80      	pop	{r7, pc}
 8000c0e:	bf00      	nop
 8000c10:	40023800 	.word	0x40023800
 8000c14:	48402d04 	.word	0x48402d04
 8000c18:	40007000 	.word	0x40007000
 8000c1c:	40023c00 	.word	0x40023c00

08000c20 <initTimers>:

void initTimers(void) {
 8000c20:	b580      	push	{r7, lr}
 8000c22:	af00      	add	r7, sp, #0
    // Timer 8, running 9Mhz 50% duty cycle
    RCC->AHB1ENR |= RCC_AHB1ENR_GPIOCEN;
 8000c24:	4b68      	ldr	r3, [pc, #416]	@ (8000dc8 <initTimers+0x1a8>)
 8000c26:	6b1b      	ldr	r3, [r3, #48]	@ 0x30
 8000c28:	4a67      	ldr	r2, [pc, #412]	@ (8000dc8 <initTimers+0x1a8>)
 8000c2a:	f043 0304 	orr.w	r3, r3, #4
 8000c2e:	6313      	str	r3, [r2, #48]	@ 0x30

    GPIOC->MODER |= GPIO_MODER_MODE6_1; // PC6 in AF mode
 8000c30:	4b66      	ldr	r3, [pc, #408]	@ (8000dcc <initTimers+0x1ac>)
 8000c32:	681b      	ldr	r3, [r3, #0]
 8000c34:	4a65      	ldr	r2, [pc, #404]	@ (8000dcc <initTimers+0x1ac>)
 8000c36:	f443 5300 	orr.w	r3, r3, #8192	@ 0x2000
 8000c3a:	6013      	str	r3, [r2, #0]
    GPIOC->OSPEEDR |= GPIO_OSPEEDR_OSPEED6_0 | GPIO_OSPEEDR_OSPEED6_1; // high speed
 8000c3c:	4b63      	ldr	r3, [pc, #396]	@ (8000dcc <initTimers+0x1ac>)
 8000c3e:	689b      	ldr	r3, [r3, #8]
 8000c40:	4a62      	ldr	r2, [pc, #392]	@ (8000dcc <initTimers+0x1ac>)
 8000c42:	f443 5340 	orr.w	r3, r3, #12288	@ 0x3000
 8000c46:	6093      	str	r3, [r2, #8]
    GPIOC->AFR[0] |= (0x3U << GPIO_AFRL_AFSEL6_Pos); // AF3 for PC6 is TIM8_CH1
 8000c48:	4b60      	ldr	r3, [pc, #384]	@ (8000dcc <initTimers+0x1ac>)
 8000c4a:	6a1b      	ldr	r3, [r3, #32]
 8000c4c:	4a5f      	ldr	r2, [pc, #380]	@ (8000dcc <initTimers+0x1ac>)
 8000c4e:	f043 7340 	orr.w	r3, r3, #50331648	@ 0x3000000
 8000c52:	6213      	str	r3, [r2, #32]

    RCC->APB2ENR |= RCC_APB2ENR_TIM8EN;
 8000c54:	4b5c      	ldr	r3, [pc, #368]	@ (8000dc8 <initTimers+0x1a8>)
 8000c56:	6c5b      	ldr	r3, [r3, #68]	@ 0x44
 8000c58:	4a5b      	ldr	r2, [pc, #364]	@ (8000dc8 <initTimers+0x1a8>)
 8000c5a:	f043 0302 	orr.w	r3, r3, #2
 8000c5e:	6453      	str	r3, [r2, #68]	@ 0x44

    TIM8->ARR = 19;
 8000c60:	4b5b      	ldr	r3, [pc, #364]	@ (8000dd0 <initTimers+0x1b0>)
 8000c62:	2213      	movs	r2, #19
 8000c64:	62da      	str	r2, [r3, #44]	@ 0x2c
    TIM8->CCMR1 |= TIM_CCMR1_OC1M_1 | TIM_CCMR1_OC1M_2; //PWM mode 1
 8000c66:	4b5a      	ldr	r3, [pc, #360]	@ (8000dd0 <initTimers+0x1b0>)
 8000c68:	699b      	ldr	r3, [r3, #24]
 8000c6a:	4a59      	ldr	r2, [pc, #356]	@ (8000dd0 <initTimers+0x1b0>)
 8000c6c:	f043 0360 	orr.w	r3, r3, #96	@ 0x60
 8000c70:	6193      	str	r3, [r2, #24]
    TIM8->DIER |= TIM_DIER_CC1DE; // DMA request on CH1 (falling edge of clock)
 8000c72:	4b57      	ldr	r3, [pc, #348]	@ (8000dd0 <initTimers+0x1b0>)
 8000c74:	68db      	ldr	r3, [r3, #12]
 8000c76:	4a56      	ldr	r2, [pc, #344]	@ (8000dd0 <initTimers+0x1b0>)
 8000c78:	f443 7300 	orr.w	r3, r3, #512	@ 0x200
 8000c7c:	60d3      	str	r3, [r2, #12]
    TIM8->CCR1 = 10;
 8000c7e:	4b54      	ldr	r3, [pc, #336]	@ (8000dd0 <initTimers+0x1b0>)
 8000c80:	220a      	movs	r2, #10
 8000c82:	635a      	str	r2, [r3, #52]	@ 0x34
    TIM8->CCER |= TIM_CCER_CC1E; // OC1 enabled
 8000c84:	4b52      	ldr	r3, [pc, #328]	@ (8000dd0 <initTimers+0x1b0>)
 8000c86:	6a1b      	ldr	r3, [r3, #32]
 8000c88:	4a51      	ldr	r2, [pc, #324]	@ (8000dd0 <initTimers+0x1b0>)
 8000c8a:	f043 0301 	orr.w	r3, r3, #1
 8000c8e:	6213      	str	r3, [r2, #32]

    TIM8->BDTR |= TIM_BDTR_MOE; // Main output enabled.. if this isn't set, there is no output on the pins!
 8000c90:	4b4f      	ldr	r3, [pc, #316]	@ (8000dd0 <initTimers+0x1b0>)
 8000c92:	6c5b      	ldr	r3, [r3, #68]	@ 0x44
 8000c94:	4a4e      	ldr	r2, [pc, #312]	@ (8000dd0 <initTimers+0x1b0>)
 8000c96:	f443 4300 	orr.w	r3, r3, #32768	@ 0x8000
 8000c9a:	6453      	str	r3, [r2, #68]	@ 0x44

    TIM8->PSC = PRESCALE; // scale down for testing
 8000c9c:	4b4c      	ldr	r3, [pc, #304]	@ (8000dd0 <initTimers+0x1b0>)
 8000c9e:	2200      	movs	r2, #0
 8000ca0:	629a      	str	r2, [r3, #40]	@ 0x28
    TIM8->EGR |= TIM_EGR_UG; // trigger a UEV to update the preload, auto-reload, and capture-compare shadow registers
 8000ca2:	4b4b      	ldr	r3, [pc, #300]	@ (8000dd0 <initTimers+0x1b0>)
 8000ca4:	695b      	ldr	r3, [r3, #20]
 8000ca6:	4a4a      	ldr	r2, [pc, #296]	@ (8000dd0 <initTimers+0x1b0>)
 8000ca8:	f043 0301 	orr.w	r3, r3, #1
 8000cac:	6153      	str	r3, [r2, #20]
    TIM8->SR = 0;
 8000cae:	4b48      	ldr	r3, [pc, #288]	@ (8000dd0 <initTimers+0x1b0>)
 8000cb0:	2200      	movs	r2, #0
 8000cb2:	611a      	str	r2, [r3, #16]
    TIM8->CR2 |= TIM_CR2_MMS_1; // Master mode - update
 8000cb4:	4b46      	ldr	r3, [pc, #280]	@ (8000dd0 <initTimers+0x1b0>)
 8000cb6:	685b      	ldr	r3, [r3, #4]
 8000cb8:	4a45      	ldr	r2, [pc, #276]	@ (8000dd0 <initTimers+0x1b0>)
 8000cba:	f043 0320 	orr.w	r3, r3, #32
 8000cbe:	6053      	str	r3, [r2, #4]

    // Timer 5
    // LAT on CH1, output to PA0
    // OE on CH2, output to PA1
    GPIOA->MODER |= GPIO_MODER_MODE0_1; // PA0 in AF mode
 8000cc0:	4b44      	ldr	r3, [pc, #272]	@ (8000dd4 <initTimers+0x1b4>)
 8000cc2:	681b      	ldr	r3, [r3, #0]
 8000cc4:	4a43      	ldr	r2, [pc, #268]	@ (8000dd4 <initTimers+0x1b4>)
 8000cc6:	f043 0302 	orr.w	r3, r3, #2
 8000cca:	6013      	str	r3, [r2, #0]
    GPIOA->OSPEEDR |= GPIO_OSPEEDR_OSPEED0_0 | GPIO_OSPEEDR_OSPEED0_1; // high speed
 8000ccc:	4b41      	ldr	r3, [pc, #260]	@ (8000dd4 <initTimers+0x1b4>)
 8000cce:	689b      	ldr	r3, [r3, #8]
 8000cd0:	4a40      	ldr	r2, [pc, #256]	@ (8000dd4 <initTimers+0x1b4>)
 8000cd2:	f043 0303 	orr.w	r3, r3, #3
 8000cd6:	6093      	str	r3, [r2, #8]
    GPIOA->AFR[0] |= (0x2U << GPIO_AFRL_AFSEL0_Pos); // AF2 for PA0 is TIM5_CH1
 8000cd8:	4b3e      	ldr	r3, [pc, #248]	@ (8000dd4 <initTimers+0x1b4>)
 8000cda:	6a1b      	ldr	r3, [r3, #32]
 8000cdc:	4a3d      	ldr	r2, [pc, #244]	@ (8000dd4 <initTimers+0x1b4>)
 8000cde:	f043 0302 	orr.w	r3, r3, #2
 8000ce2:	6213      	str	r3, [r2, #32]

    GPIOA->MODER |= GPIO_MODER_MODE1_1; // PA1 in AF mode
 8000ce4:	4b3b      	ldr	r3, [pc, #236]	@ (8000dd4 <initTimers+0x1b4>)
 8000ce6:	681b      	ldr	r3, [r3, #0]
 8000ce8:	4a3a      	ldr	r2, [pc, #232]	@ (8000dd4 <initTimers+0x1b4>)
 8000cea:	f043 0308 	orr.w	r3, r3, #8
 8000cee:	6013      	str	r3, [r2, #0]
    GPIOA->OSPEEDR |= GPIO_OSPEEDR_OSPEED1_0 | GPIO_OSPEEDR_OSPEED1_1; // high speed
 8000cf0:	4b38      	ldr	r3, [pc, #224]	@ (8000dd4 <initTimers+0x1b4>)
 8000cf2:	689b      	ldr	r3, [r3, #8]
 8000cf4:	4a37      	ldr	r2, [pc, #220]	@ (8000dd4 <initTimers+0x1b4>)
 8000cf6:	f043 030c 	orr.w	r3, r3, #12
 8000cfa:	6093      	str	r3, [r2, #8]
    GPIOA->AFR[0] |= (0x2U << GPIO_AFRL_AFSEL1_Pos); // AF2 for PA1 is TIM5_CH2
 8000cfc:	4b35      	ldr	r3, [pc, #212]	@ (8000dd4 <initTimers+0x1b4>)
 8000cfe:	6a1b      	ldr	r3, [r3, #32]
 8000d00:	4a34      	ldr	r2, [pc, #208]	@ (8000dd4 <initTimers+0x1b4>)
 8000d02:	f043 0320 	orr.w	r3, r3, #32
 8000d06:	6213      	str	r3, [r2, #32]

    RCC->APB1ENR |= RCC_APB1ENR_TIM5EN;
 8000d08:	4b2f      	ldr	r3, [pc, #188]	@ (8000dc8 <initTimers+0x1a8>)
 8000d0a:	6c1b      	ldr	r3, [r3, #64]	@ 0x40
 8000d0c:	4a2e      	ldr	r2, [pc, #184]	@ (8000dc8 <initTimers+0x1a8>)
 8000d0e:	f043 0308 	orr.w	r3, r3, #8
 8000d12:	6413      	str	r3, [r2, #64]	@ 0x40

    TIM5->SMCR |= TIM_SMCR_TS_1 | TIM_SMCR_TS_0; // select ITR3 as the trigger input (for TIM5, this is TIM8)
 8000d14:	4b30      	ldr	r3, [pc, #192]	@ (8000dd8 <initTimers+0x1b8>)
 8000d16:	689b      	ldr	r3, [r3, #8]
 8000d18:	4a2f      	ldr	r2, [pc, #188]	@ (8000dd8 <initTimers+0x1b8>)
 8000d1a:	f043 0330 	orr.w	r3, r3, #48	@ 0x30
 8000d1e:	6093      	str	r3, [r2, #8]
    TIM5->SMCR |= TIM_SMCR_SMS_2 | TIM_SMCR_SMS_1; // slave mode set to trigger mode
 8000d20:	4b2d      	ldr	r3, [pc, #180]	@ (8000dd8 <initTimers+0x1b8>)
 8000d22:	689b      	ldr	r3, [r3, #8]
 8000d24:	4a2c      	ldr	r2, [pc, #176]	@ (8000dd8 <initTimers+0x1b8>)
 8000d26:	f043 0306 	orr.w	r3, r3, #6
 8000d2a:	6093      	str	r3, [r2, #8]
    TIM5->ARR = 1279;
 8000d2c:	4b2a      	ldr	r3, [pc, #168]	@ (8000dd8 <initTimers+0x1b8>)
 8000d2e:	f240 42ff 	movw	r2, #1279	@ 0x4ff
 8000d32:	62da      	str	r2, [r3, #44]	@ 0x2c
    TIM5->CCMR1 |= TIM_CCMR1_OC1M_1 | TIM_CCMR1_OC1M_2; //PWM mode 1
 8000d34:	4b28      	ldr	r3, [pc, #160]	@ (8000dd8 <initTimers+0x1b8>)
 8000d36:	699b      	ldr	r3, [r3, #24]
 8000d38:	4a27      	ldr	r2, [pc, #156]	@ (8000dd8 <initTimers+0x1b8>)
 8000d3a:	f043 0360 	orr.w	r3, r3, #96	@ 0x60
 8000d3e:	6193      	str	r3, [r2, #24]
    TIM5->CCR1 = 12;
 8000d40:	4b25      	ldr	r3, [pc, #148]	@ (8000dd8 <initTimers+0x1b8>)
 8000d42:	220c      	movs	r2, #12
 8000d44:	635a      	str	r2, [r3, #52]	@ 0x34
    TIM5->CCER |= TIM_CCER_CC1E; // OC1 enabled
 8000d46:	4b24      	ldr	r3, [pc, #144]	@ (8000dd8 <initTimers+0x1b8>)
 8000d48:	6a1b      	ldr	r3, [r3, #32]
 8000d4a:	4a23      	ldr	r2, [pc, #140]	@ (8000dd8 <initTimers+0x1b8>)
 8000d4c:	f043 0301 	orr.w	r3, r3, #1
 8000d50:	6213      	str	r3, [r2, #32]

    TIM5->CCMR1 |= TIM_CCMR1_OC2M_1 | TIM_CCMR1_OC2M_2; //PWM mode 1
 8000d52:	4b21      	ldr	r3, [pc, #132]	@ (8000dd8 <initTimers+0x1b8>)
 8000d54:	699b      	ldr	r3, [r3, #24]
 8000d56:	4a20      	ldr	r2, [pc, #128]	@ (8000dd8 <initTimers+0x1b8>)
 8000d58:	f443 43c0 	orr.w	r3, r3, #24576	@ 0x6000
 8000d5c:	6193      	str	r3, [r2, #24]
    TIM5->CCMR1 |= TIM_CCMR1_OC2PE; // preload enabled for CCR2
 8000d5e:	4b1e      	ldr	r3, [pc, #120]	@ (8000dd8 <initTimers+0x1b8>)
 8000d60:	699b      	ldr	r3, [r3, #24]
 8000d62:	4a1d      	ldr	r2, [pc, #116]	@ (8000dd8 <initTimers+0x1b8>)
 8000d64:	f443 6300 	orr.w	r3, r3, #2048	@ 0x800
 8000d68:	6193      	str	r3, [r2, #24]
    TIM5->CCR2 = 1280; // start with OC2 (OE) held at 1 (off)
 8000d6a:	4b1b      	ldr	r3, [pc, #108]	@ (8000dd8 <initTimers+0x1b8>)
 8000d6c:	f44f 62a0 	mov.w	r2, #1280	@ 0x500
 8000d70:	639a      	str	r2, [r3, #56]	@ 0x38
    TIM5->CCER |= TIM_CCER_CC2E; // OC2 enabled
 8000d72:	4b19      	ldr	r3, [pc, #100]	@ (8000dd8 <initTimers+0x1b8>)
 8000d74:	6a1b      	ldr	r3, [r3, #32]
 8000d76:	4a18      	ldr	r2, [pc, #96]	@ (8000dd8 <initTimers+0x1b8>)
 8000d78:	f043 0310 	orr.w	r3, r3, #16
 8000d7c:	6213      	str	r3, [r2, #32]

    TIM5->PSC = PRESCALE; // scale down for testing
 8000d7e:	4b16      	ldr	r3, [pc, #88]	@ (8000dd8 <initTimers+0x1b8>)
 8000d80:	2200      	movs	r2, #0
 8000d82:	629a      	str	r2, [r3, #40]	@ 0x28
    TIM5->EGR |= TIM_EGR_UG; // trigger a UEV to update the preload, auto-reload, and capture-compare shadow registers
 8000d84:	4b14      	ldr	r3, [pc, #80]	@ (8000dd8 <initTimers+0x1b8>)
 8000d86:	695b      	ldr	r3, [r3, #20]
 8000d88:	4a13      	ldr	r2, [pc, #76]	@ (8000dd8 <initTimers+0x1b8>)
 8000d8a:	f043 0301 	orr.w	r3, r3, #1
 8000d8e:	6153      	str	r3, [r2, #20]
    TIM5->SR = 0; // clear the status flags
 8000d90:	4b11      	ldr	r3, [pc, #68]	@ (8000dd8 <initTimers+0x1b8>)
 8000d92:	2200      	movs	r2, #0
 8000d94:	611a      	str	r2, [r3, #16]
    TIM5->DIER |= TIM_DIER_UIE; // enable TIM5 interrupt on UEV
 8000d96:	4b10      	ldr	r3, [pc, #64]	@ (8000dd8 <initTimers+0x1b8>)
 8000d98:	68db      	ldr	r3, [r3, #12]
 8000d9a:	4a0f      	ldr	r2, [pc, #60]	@ (8000dd8 <initTimers+0x1b8>)
 8000d9c:	f043 0301 	orr.w	r3, r3, #1
 8000da0:	60d3      	str	r3, [r2, #12]
    TIM5->CNT = 15;
 8000da2:	4b0d      	ldr	r3, [pc, #52]	@ (8000dd8 <initTimers+0x1b8>)
 8000da4:	220f      	movs	r2, #15
 8000da6:	625a      	str	r2, [r3, #36]	@ 0x24

    NVIC_EnableIRQ(TIM5_IRQn);
 8000da8:	2032      	movs	r0, #50	@ 0x32
 8000daa:	f7ff fe0b 	bl	80009c4 <__NVIC_EnableIRQ>

    // Start the timer
    TIM8->CR1 |= TIM_CR1_CEN;
 8000dae:	4b08      	ldr	r3, [pc, #32]	@ (8000dd0 <initTimers+0x1b0>)
 8000db0:	681b      	ldr	r3, [r3, #0]
 8000db2:	4a07      	ldr	r2, [pc, #28]	@ (8000dd0 <initTimers+0x1b0>)
 8000db4:	f043 0301 	orr.w	r3, r3, #1
 8000db8:	6013      	str	r3, [r2, #0]
    TIM5->CCR2 = 1280 - BRIGHTNESS; // put the first value in CCR2 preload it will be loaded at the first UEV
 8000dba:	4b07      	ldr	r3, [pc, #28]	@ (8000dd8 <initTimers+0x1b8>)
 8000dbc:	f240 42f6 	movw	r2, #1270	@ 0x4f6
 8000dc0:	639a      	str	r2, [r3, #56]	@ 0x38
}
 8000dc2:	bf00      	nop
 8000dc4:	bd80      	pop	{r7, pc}
 8000dc6:	bf00      	nop
 8000dc8:	40023800 	.word	0x40023800
 8000dcc:	40020800 	.word	0x40020800
 8000dd0:	40010400 	.word	0x40010400
 8000dd4:	40020000 	.word	0x40020000
 8000dd8:	40000c00 	.word	0x40000c00

08000ddc <init>:

void init(void) {
 8000ddc:	b580      	push	{r7, lr}
 8000dde:	af00      	add	r7, sp, #0
    // enable the data and instruction cache and prefetch
    FLASH->ACR |= FLASH_ACR_DCEN | FLASH_ACR_ICEN | FLASH_ACR_PRFTEN;
 8000de0:	4b10      	ldr	r3, [pc, #64]	@ (8000e24 <init+0x48>)
 8000de2:	681b      	ldr	r3, [r3, #0]
 8000de4:	4a0f      	ldr	r2, [pc, #60]	@ (8000e24 <init+0x48>)
 8000de6:	f443 63e0 	orr.w	r3, r3, #1792	@ 0x700
 8000dea:	6013      	str	r3, [r2, #0]

    // This will set the clock to 180MHz
    initClock();
 8000dec:	f7ff feaa 	bl	8000b44 <initClock>
    SysTick_Init();
 8000df0:	f001 ffbe 	bl	8002d70 <SysTick_Init>

    // Set up any input/output pins
    initGPIO();
 8000df4:	f7ff fe04 	bl	8000a00 <initGPIO>
    initDMA();
 8000df8:	f7ff fe5e 	bl	8000ab8 <initDMA>
    DBGMCU->APB1FZ |= DBGMCU_APB1_FZ_DBG_TIM5_STOP;
 8000dfc:	4b0a      	ldr	r3, [pc, #40]	@ (8000e28 <init+0x4c>)
 8000dfe:	689b      	ldr	r3, [r3, #8]
 8000e00:	4a09      	ldr	r2, [pc, #36]	@ (8000e28 <init+0x4c>)
 8000e02:	f043 0308 	orr.w	r3, r3, #8
 8000e06:	6093      	str	r3, [r2, #8]
    DBGMCU->APB2FZ |= DBGMCU_APB2_FZ_DBG_TIM8_STOP;
 8000e08:	4b07      	ldr	r3, [pc, #28]	@ (8000e28 <init+0x4c>)
 8000e0a:	68db      	ldr	r3, [r3, #12]
 8000e0c:	4a06      	ldr	r2, [pc, #24]	@ (8000e28 <init+0x4c>)
 8000e0e:	f043 0302 	orr.w	r3, r3, #2
 8000e12:	60d3      	str	r3, [r2, #12]
    initTimers();
 8000e14:	f7ff ff04 	bl	8000c20 <initTimers>
    busyFlag = 1;
 8000e18:	4b04      	ldr	r3, [pc, #16]	@ (8000e2c <init+0x50>)
 8000e1a:	2201      	movs	r2, #1
 8000e1c:	701a      	strb	r2, [r3, #0]
}
 8000e1e:	bf00      	nop
 8000e20:	bd80      	pop	{r7, pc}
 8000e22:	bf00      	nop
 8000e24:	40023c00 	.word	0x40023c00
 8000e28:	e0042000 	.word	0xe0042000
 8000e2c:	2000b551 	.word	0x2000b551

08000e30 <TIM5_IRQHandler>:
#include "stm32f446xx.h"
#include "main.h"
#include "led_programs.h"

void TIM5_IRQHandler(void) {
 8000e30:	b480      	push	{r7}
 8000e32:	af00      	add	r7, sp, #0
    /* Clear the interrupt flag right away.
     * Due to pipelining, the register itself might not get updated for several
     * cycles. If we wait until the end of the ISR to clear the flag,
     * it can trigger again immediately */
    TIM5->SR &= ~TIM_SR_UIF_Msk;
 8000e34:	4b21      	ldr	r3, [pc, #132]	@ (8000ebc <TIM5_IRQHandler+0x8c>)
 8000e36:	691b      	ldr	r3, [r3, #16]
 8000e38:	4a20      	ldr	r2, [pc, #128]	@ (8000ebc <TIM5_IRQHandler+0x8c>)
 8000e3a:	f023 0301 	bic.w	r3, r3, #1
 8000e3e:	6113      	str	r3, [r2, #16]

    if(bit == 0) { // the first 64 bits of a new row have been latched. Set the row select to match.
 8000e40:	4b1f      	ldr	r3, [pc, #124]	@ (8000ec0 <TIM5_IRQHandler+0x90>)
 8000e42:	781b      	ldrb	r3, [r3, #0]
 8000e44:	b2db      	uxtb	r3, r3
 8000e46:	2b00      	cmp	r3, #0
 8000e48:	d119      	bne.n	8000e7e <TIM5_IRQHandler+0x4e>
        GPIOB->ODR = (GPIOB->ODR & ~(row_mask)) | row;
 8000e4a:	4b1e      	ldr	r3, [pc, #120]	@ (8000ec4 <TIM5_IRQHandler+0x94>)
 8000e4c:	695b      	ldr	r3, [r3, #20]
 8000e4e:	f023 031f 	bic.w	r3, r3, #31
 8000e52:	4a1d      	ldr	r2, [pc, #116]	@ (8000ec8 <TIM5_IRQHandler+0x98>)
 8000e54:	7812      	ldrb	r2, [r2, #0]
 8000e56:	b2d2      	uxtb	r2, r2
 8000e58:	4611      	mov	r1, r2
 8000e5a:	4a1a      	ldr	r2, [pc, #104]	@ (8000ec4 <TIM5_IRQHandler+0x94>)
 8000e5c:	430b      	orrs	r3, r1
 8000e5e:	6153      	str	r3, [r2, #20]
        row++;
 8000e60:	4b19      	ldr	r3, [pc, #100]	@ (8000ec8 <TIM5_IRQHandler+0x98>)
 8000e62:	781b      	ldrb	r3, [r3, #0]
 8000e64:	b2db      	uxtb	r3, r3
 8000e66:	3301      	adds	r3, #1
 8000e68:	b2da      	uxtb	r2, r3
 8000e6a:	4b17      	ldr	r3, [pc, #92]	@ (8000ec8 <TIM5_IRQHandler+0x98>)
 8000e6c:	701a      	strb	r2, [r3, #0]
        row &= row_mask;
 8000e6e:	4b16      	ldr	r3, [pc, #88]	@ (8000ec8 <TIM5_IRQHandler+0x98>)
 8000e70:	781b      	ldrb	r3, [r3, #0]
 8000e72:	b2db      	uxtb	r3, r3
 8000e74:	f003 031f 	and.w	r3, r3, #31
 8000e78:	b2da      	uxtb	r2, r3
 8000e7a:	4b13      	ldr	r3, [pc, #76]	@ (8000ec8 <TIM5_IRQHandler+0x98>)
 8000e7c:	701a      	strb	r2, [r3, #0]
    }
    bit++;
 8000e7e:	4b10      	ldr	r3, [pc, #64]	@ (8000ec0 <TIM5_IRQHandler+0x90>)
 8000e80:	781b      	ldrb	r3, [r3, #0]
 8000e82:	b2db      	uxtb	r3, r3
 8000e84:	3301      	adds	r3, #1
 8000e86:	b2da      	uxtb	r2, r3
 8000e88:	4b0d      	ldr	r3, [pc, #52]	@ (8000ec0 <TIM5_IRQHandler+0x90>)
 8000e8a:	701a      	strb	r2, [r3, #0]
    bit &=  0x7;
 8000e8c:	4b0c      	ldr	r3, [pc, #48]	@ (8000ec0 <TIM5_IRQHandler+0x90>)
 8000e8e:	781b      	ldrb	r3, [r3, #0]
 8000e90:	b2db      	uxtb	r3, r3
 8000e92:	f003 0307 	and.w	r3, r3, #7
 8000e96:	b2da      	uxtb	r2, r3
 8000e98:	4b09      	ldr	r3, [pc, #36]	@ (8000ec0 <TIM5_IRQHandler+0x90>)
 8000e9a:	701a      	strb	r2, [r3, #0]
    TIM5->CCR2 = 1280 - (BRIGHTNESS * (1 << bit)); // set the duty cycle of the NEXT ~OE pulse
 8000e9c:	4b08      	ldr	r3, [pc, #32]	@ (8000ec0 <TIM5_IRQHandler+0x90>)
 8000e9e:	781b      	ldrb	r3, [r3, #0]
 8000ea0:	b2db      	uxtb	r3, r3
 8000ea2:	461a      	mov	r2, r3
 8000ea4:	230a      	movs	r3, #10
 8000ea6:	4093      	lsls	r3, r2
 8000ea8:	f5c3 62a0 	rsb	r2, r3, #1280	@ 0x500
 8000eac:	4b03      	ldr	r3, [pc, #12]	@ (8000ebc <TIM5_IRQHandler+0x8c>)
 8000eae:	639a      	str	r2, [r3, #56]	@ 0x38
}
 8000eb0:	bf00      	nop
 8000eb2:	46bd      	mov	sp, r7
 8000eb4:	f85d 7b04 	ldr.w	r7, [sp], #4
 8000eb8:	4770      	bx	lr
 8000eba:	bf00      	nop
 8000ebc:	40000c00 	.word	0x40000c00
 8000ec0:	2000b548 	.word	0x2000b548
 8000ec4:	40020400 	.word	0x40020400
 8000ec8:	2000b549 	.word	0x2000b549

08000ecc <DMA2_Stream2_IRQHandler>:

void DMA2_Stream2_IRQHandler(void) {
 8000ecc:	b480      	push	{r7}
 8000ece:	af00      	add	r7, sp, #0
    DMA2->LIFCR |= DMA_LIFCR_CTCIF2; // make sure the interrupt flag is clear
 8000ed0:	4b09      	ldr	r3, [pc, #36]	@ (8000ef8 <DMA2_Stream2_IRQHandler+0x2c>)
 8000ed2:	689b      	ldr	r3, [r3, #8]
 8000ed4:	4a08      	ldr	r2, [pc, #32]	@ (8000ef8 <DMA2_Stream2_IRQHandler+0x2c>)
 8000ed6:	f443 1300 	orr.w	r3, r3, #2097152	@ 0x200000
 8000eda:	6093      	str	r3, [r2, #8]
    frame_count++;
 8000edc:	4b07      	ldr	r3, [pc, #28]	@ (8000efc <DMA2_Stream2_IRQHandler+0x30>)
 8000ede:	681b      	ldr	r3, [r3, #0]
 8000ee0:	3301      	adds	r3, #1
 8000ee2:	4a06      	ldr	r2, [pc, #24]	@ (8000efc <DMA2_Stream2_IRQHandler+0x30>)
 8000ee4:	6013      	str	r3, [r2, #0]
    busyFlag = 0; // main loop watches this flag to know when to fill up the next buffer
 8000ee6:	4b06      	ldr	r3, [pc, #24]	@ (8000f00 <DMA2_Stream2_IRQHandler+0x34>)
 8000ee8:	2200      	movs	r2, #0
 8000eea:	701a      	strb	r2, [r3, #0]
}
 8000eec:	bf00      	nop
 8000eee:	46bd      	mov	sp, r7
 8000ef0:	f85d 7b04 	ldr.w	r7, [sp], #4
 8000ef4:	4770      	bx	lr
 8000ef6:	bf00      	nop
 8000ef8:	40026400 	.word	0x40026400
 8000efc:	2000b54c 	.word	0x2000b54c
 8000f00:	2000b551 	.word	0x2000b551

08000f04 <mapf>:

RGB_t frame[WIDTH*HEIGHT];
uint8_t buffer1[WIDTH*BITS_PER_CHANNEL*SCAN_RATE];
uint8_t buffer2[WIDTH*BITS_PER_CHANNEL*SCAN_RATE];

float mapf(float value, float c_min, float c_max, float t_min, float t_max) {
 8000f04:	b480      	push	{r7}
 8000f06:	b089      	sub	sp, #36	@ 0x24
 8000f08:	af00      	add	r7, sp, #0
 8000f0a:	ed87 0a05 	vstr	s0, [r7, #20]
 8000f0e:	edc7 0a04 	vstr	s1, [r7, #16]
 8000f12:	ed87 1a03 	vstr	s2, [r7, #12]
 8000f16:	edc7 1a02 	vstr	s3, [r7, #8]
 8000f1a:	ed87 2a01 	vstr	s4, [r7, #4]
	float res = (value - c_min) / (c_max - c_min) * (t_max - t_min) + t_min;
 8000f1e:	ed97 7a05 	vldr	s14, [r7, #20]
 8000f22:	edd7 7a04 	vldr	s15, [r7, #16]
 8000f26:	ee77 6a67 	vsub.f32	s13, s14, s15
 8000f2a:	ed97 7a03 	vldr	s14, [r7, #12]
 8000f2e:	edd7 7a04 	vldr	s15, [r7, #16]
 8000f32:	ee77 7a67 	vsub.f32	s15, s14, s15
 8000f36:	ee86 7aa7 	vdiv.f32	s14, s13, s15
 8000f3a:	edd7 6a01 	vldr	s13, [r7, #4]
 8000f3e:	edd7 7a02 	vldr	s15, [r7, #8]
 8000f42:	ee76 7ae7 	vsub.f32	s15, s13, s15
 8000f46:	ee67 7a27 	vmul.f32	s15, s14, s15
 8000f4a:	ed97 7a02 	vldr	s14, [r7, #8]
 8000f4e:	ee77 7a27 	vadd.f32	s15, s14, s15
 8000f52:	edc7 7a07 	vstr	s15, [r7, #28]
    return res;
 8000f56:	69fb      	ldr	r3, [r7, #28]
 8000f58:	ee07 3a90 	vmov	s15, r3
}
 8000f5c:	eeb0 0a67 	vmov.f32	s0, s15
 8000f60:	3724      	adds	r7, #36	@ 0x24
 8000f62:	46bd      	mov	sp, r7
 8000f64:	f85d 7b04 	ldr.w	r7, [sp], #4
 8000f68:	4770      	bx	lr

08000f6a <bound>:

float bound(float value, float max, float min) {
 8000f6a:	b580      	push	{r7, lr}
 8000f6c:	b084      	sub	sp, #16
 8000f6e:	af00      	add	r7, sp, #0
 8000f70:	ed87 0a03 	vstr	s0, [r7, #12]
 8000f74:	edc7 0a02 	vstr	s1, [r7, #8]
 8000f78:	ed87 1a01 	vstr	s2, [r7, #4]
    return fmaxf(fminf(value, max), min);
 8000f7c:	edd7 0a02 	vldr	s1, [r7, #8]
 8000f80:	ed97 0a03 	vldr	s0, [r7, #12]
 8000f84:	f003 f9bb 	bl	80042fe <fminf>
 8000f88:	eef0 7a40 	vmov.f32	s15, s0
 8000f8c:	eef0 0a67 	vmov.f32	s1, s15
 8000f90:	ed97 0a01 	vldr	s0, [r7, #4]
 8000f94:	f003 f996 	bl	80042c4 <fmaxf>
 8000f98:	eef0 7a40 	vmov.f32	s15, s0
}
 8000f9c:	eeb0 0a67 	vmov.f32	s0, s15
 8000fa0:	3710      	adds	r7, #16
 8000fa2:	46bd      	mov	sp, r7
 8000fa4:	bd80      	pop	{r7, pc}
	...

08000fa8 <LED_fillBuffer>:


void LED_fillBuffer(RGB_t *frame, uint8_t *buffer) {
 8000fa8:	b480      	push	{r7}
 8000faa:	b089      	sub	sp, #36	@ 0x24
 8000fac:	af00      	add	r7, sp, #0
 8000fae:	6078      	str	r0, [r7, #4]
 8000fb0:	6039      	str	r1, [r7, #0]
    uint32_t i = 0, p1, p2;
 8000fb2:	2300      	movs	r3, #0
 8000fb4:	61fb      	str	r3, [r7, #28]
    uint8_t bit, mask;
    for(uint8_t row = 0; row < SCAN_RATE; row++) {
 8000fb6:	2300      	movs	r3, #0
 8000fb8:	76bb      	strb	r3, [r7, #26]
 8000fba:	e0b1      	b.n	8001120 <LED_fillBuffer+0x178>
        p1 = row * WIDTH;
 8000fbc:	7ebb      	ldrb	r3, [r7, #26]
 8000fbe:	019b      	lsls	r3, r3, #6
 8000fc0:	617b      	str	r3, [r7, #20]
        p2 = p1 + WIDTH * SCAN_RATE;
 8000fc2:	697b      	ldr	r3, [r7, #20]
 8000fc4:	f503 6300 	add.w	r3, r3, #2048	@ 0x800
 8000fc8:	613b      	str	r3, [r7, #16]
        for(bit = 0; bit < BITS_PER_CHANNEL; bit++) {
 8000fca:	2300      	movs	r3, #0
 8000fcc:	76fb      	strb	r3, [r7, #27]
 8000fce:	e0a0      	b.n	8001112 <LED_fillBuffer+0x16a>
            mask = 1<<bit;
 8000fd0:	7efb      	ldrb	r3, [r7, #27]
 8000fd2:	2201      	movs	r2, #1
 8000fd4:	fa02 f303 	lsl.w	r3, r2, r3
 8000fd8:	73fb      	strb	r3, [r7, #15]
            for(uint8_t col = 0; col < WIDTH; col++) {
 8000fda:	2300      	movs	r3, #0
 8000fdc:	767b      	strb	r3, [r7, #25]
 8000fde:	e091      	b.n	8001104 <LED_fillBuffer+0x15c>
                buffer[i] =
                    ((((gammaR[frame[p2+col].R]) & mask) >> bit) << 3) |
 8000fe0:	7e7a      	ldrb	r2, [r7, #25]
 8000fe2:	693b      	ldr	r3, [r7, #16]
 8000fe4:	441a      	add	r2, r3
 8000fe6:	4613      	mov	r3, r2
 8000fe8:	005b      	lsls	r3, r3, #1
 8000fea:	4413      	add	r3, r2
 8000fec:	687a      	ldr	r2, [r7, #4]
 8000fee:	4413      	add	r3, r2
 8000ff0:	781b      	ldrb	r3, [r3, #0]
 8000ff2:	461a      	mov	r2, r3
 8000ff4:	4b50      	ldr	r3, [pc, #320]	@ (8001138 <LED_fillBuffer+0x190>)
 8000ff6:	5c9a      	ldrb	r2, [r3, r2]
 8000ff8:	7bfb      	ldrb	r3, [r7, #15]
 8000ffa:	4013      	ands	r3, r2
 8000ffc:	b2db      	uxtb	r3, r3
 8000ffe:	461a      	mov	r2, r3
 8001000:	7efb      	ldrb	r3, [r7, #27]
 8001002:	fa42 f303 	asr.w	r3, r2, r3
 8001006:	00db      	lsls	r3, r3, #3
 8001008:	b259      	sxtb	r1, r3
                    ((((gammaG[frame[p2+col].G]) & mask) >> bit) << 4) |
 800100a:	7e7a      	ldrb	r2, [r7, #25]
 800100c:	693b      	ldr	r3, [r7, #16]
 800100e:	441a      	add	r2, r3
 8001010:	4613      	mov	r3, r2
 8001012:	005b      	lsls	r3, r3, #1
 8001014:	4413      	add	r3, r2
 8001016:	687a      	ldr	r2, [r7, #4]
 8001018:	4413      	add	r3, r2
 800101a:	785b      	ldrb	r3, [r3, #1]
 800101c:	461a      	mov	r2, r3
 800101e:	4b47      	ldr	r3, [pc, #284]	@ (800113c <LED_fillBuffer+0x194>)
 8001020:	5c9a      	ldrb	r2, [r3, r2]
 8001022:	7bfb      	ldrb	r3, [r7, #15]
 8001024:	4013      	ands	r3, r2
 8001026:	b2db      	uxtb	r3, r3
 8001028:	461a      	mov	r2, r3
 800102a:	7efb      	ldrb	r3, [r7, #27]
 800102c:	fa42 f303 	asr.w	r3, r2, r3
 8001030:	011b      	lsls	r3, r3, #4
                    ((((gammaR[frame[p2+col].R]) & mask) >> bit) << 3) |
 8001032:	b25b      	sxtb	r3, r3
 8001034:	430b      	orrs	r3, r1
 8001036:	b259      	sxtb	r1, r3
                    ((((gammaB[frame[p2+col].B]) & mask) >> bit) << 5) |
 8001038:	7e7a      	ldrb	r2, [r7, #25]
 800103a:	693b      	ldr	r3, [r7, #16]
 800103c:	441a      	add	r2, r3
 800103e:	4613      	mov	r3, r2
 8001040:	005b      	lsls	r3, r3, #1
 8001042:	4413      	add	r3, r2
 8001044:	687a      	ldr	r2, [r7, #4]
 8001046:	4413      	add	r3, r2
 8001048:	789b      	ldrb	r3, [r3, #2]
 800104a:	461a      	mov	r2, r3
 800104c:	4b3c      	ldr	r3, [pc, #240]	@ (8001140 <LED_fillBuffer+0x198>)
 800104e:	5c9a      	ldrb	r2, [r3, r2]
 8001050:	7bfb      	ldrb	r3, [r7, #15]
 8001052:	4013      	ands	r3, r2
 8001054:	b2db      	uxtb	r3, r3
 8001056:	461a      	mov	r2, r3
 8001058:	7efb      	ldrb	r3, [r7, #27]
 800105a:	fa42 f303 	asr.w	r3, r2, r3
 800105e:	015b      	lsls	r3, r3, #5
                    ((((gammaG[frame[p2+col].G]) & mask) >> bit) << 4) |
 8001060:	b25b      	sxtb	r3, r3
 8001062:	430b      	orrs	r3, r1
 8001064:	b259      	sxtb	r1, r3
                    ((((gammaR[frame[p1+col].R]) & mask) >> bit) << 0) |
 8001066:	7e7a      	ldrb	r2, [r7, #25]
 8001068:	697b      	ldr	r3, [r7, #20]
 800106a:	441a      	add	r2, r3
 800106c:	4613      	mov	r3, r2
 800106e:	005b      	lsls	r3, r3, #1
 8001070:	4413      	add	r3, r2
 8001072:	687a      	ldr	r2, [r7, #4]
 8001074:	4413      	add	r3, r2
 8001076:	781b      	ldrb	r3, [r3, #0]
 8001078:	461a      	mov	r2, r3
 800107a:	4b2f      	ldr	r3, [pc, #188]	@ (8001138 <LED_fillBuffer+0x190>)
 800107c:	5c9a      	ldrb	r2, [r3, r2]
 800107e:	7bfb      	ldrb	r3, [r7, #15]
 8001080:	4013      	ands	r3, r2
 8001082:	b2db      	uxtb	r3, r3
 8001084:	461a      	mov	r2, r3
 8001086:	7efb      	ldrb	r3, [r7, #27]
 8001088:	fa42 f303 	asr.w	r3, r2, r3
                    ((((gammaB[frame[p2+col].B]) & mask) >> bit) << 5) |
 800108c:	b25b      	sxtb	r3, r3
 800108e:	430b      	orrs	r3, r1
 8001090:	b259      	sxtb	r1, r3
                    ((((gammaG[frame[p1+col].G]) & mask) >> bit) << 1) |
 8001092:	7e7a      	ldrb	r2, [r7, #25]
 8001094:	697b      	ldr	r3, [r7, #20]
 8001096:	441a      	add	r2, r3
 8001098:	4613      	mov	r3, r2
 800109a:	005b      	lsls	r3, r3, #1
 800109c:	4413      	add	r3, r2
 800109e:	687a      	ldr	r2, [r7, #4]
 80010a0:	4413      	add	r3, r2
 80010a2:	785b      	ldrb	r3, [r3, #1]
 80010a4:	461a      	mov	r2, r3
 80010a6:	4b25      	ldr	r3, [pc, #148]	@ (800113c <LED_fillBuffer+0x194>)
 80010a8:	5c9a      	ldrb	r2, [r3, r2]
 80010aa:	7bfb      	ldrb	r3, [r7, #15]
 80010ac:	4013      	ands	r3, r2
 80010ae:	b2db      	uxtb	r3, r3
 80010b0:	461a      	mov	r2, r3
 80010b2:	7efb      	ldrb	r3, [r7, #27]
 80010b4:	fa42 f303 	asr.w	r3, r2, r3
 80010b8:	005b      	lsls	r3, r3, #1
                    ((((gammaR[frame[p1+col].R]) & mask) >> bit) << 0) |
 80010ba:	b25b      	sxtb	r3, r3
 80010bc:	430b      	orrs	r3, r1
 80010be:	b259      	sxtb	r1, r3
                    ((((gammaB[frame[p1+col].B]) & mask) >> bit) << 2);
 80010c0:	7e7a      	ldrb	r2, [r7, #25]
 80010c2:	697b      	ldr	r3, [r7, #20]
 80010c4:	441a      	add	r2, r3
 80010c6:	4613      	mov	r3, r2
 80010c8:	005b      	lsls	r3, r3, #1
 80010ca:	4413      	add	r3, r2
 80010cc:	687a      	ldr	r2, [r7, #4]
 80010ce:	4413      	add	r3, r2
 80010d0:	789b      	ldrb	r3, [r3, #2]
 80010d2:	461a      	mov	r2, r3
 80010d4:	4b1a      	ldr	r3, [pc, #104]	@ (8001140 <LED_fillBuffer+0x198>)
 80010d6:	5c9a      	ldrb	r2, [r3, r2]
 80010d8:	7bfb      	ldrb	r3, [r7, #15]
 80010da:	4013      	ands	r3, r2
 80010dc:	b2db      	uxtb	r3, r3
 80010de:	461a      	mov	r2, r3
 80010e0:	7efb      	ldrb	r3, [r7, #27]
 80010e2:	fa42 f303 	asr.w	r3, r2, r3
 80010e6:	009b      	lsls	r3, r3, #2
                    ((((gammaG[frame[p1+col].G]) & mask) >> bit) << 1) |
 80010e8:	b25b      	sxtb	r3, r3
 80010ea:	430b      	orrs	r3, r1
 80010ec:	b259      	sxtb	r1, r3
                buffer[i] =
 80010ee:	683a      	ldr	r2, [r7, #0]
 80010f0:	69fb      	ldr	r3, [r7, #28]
 80010f2:	4413      	add	r3, r2
                    ((((gammaG[frame[p1+col].G]) & mask) >> bit) << 1) |
 80010f4:	b2ca      	uxtb	r2, r1
                buffer[i] =
 80010f6:	701a      	strb	r2, [r3, #0]
                i++;
 80010f8:	69fb      	ldr	r3, [r7, #28]
 80010fa:	3301      	adds	r3, #1
 80010fc:	61fb      	str	r3, [r7, #28]
            for(uint8_t col = 0; col < WIDTH; col++) {
 80010fe:	7e7b      	ldrb	r3, [r7, #25]
 8001100:	3301      	adds	r3, #1
 8001102:	767b      	strb	r3, [r7, #25]
 8001104:	7e7b      	ldrb	r3, [r7, #25]
 8001106:	2b3f      	cmp	r3, #63	@ 0x3f
 8001108:	f67f af6a 	bls.w	8000fe0 <LED_fillBuffer+0x38>
        for(bit = 0; bit < BITS_PER_CHANNEL; bit++) {
 800110c:	7efb      	ldrb	r3, [r7, #27]
 800110e:	3301      	adds	r3, #1
 8001110:	76fb      	strb	r3, [r7, #27]
 8001112:	7efb      	ldrb	r3, [r7, #27]
 8001114:	2b07      	cmp	r3, #7
 8001116:	f67f af5b 	bls.w	8000fd0 <LED_fillBuffer+0x28>
    for(uint8_t row = 0; row < SCAN_RATE; row++) {
 800111a:	7ebb      	ldrb	r3, [r7, #26]
 800111c:	3301      	adds	r3, #1
 800111e:	76bb      	strb	r3, [r7, #26]
 8001120:	7ebb      	ldrb	r3, [r7, #26]
 8001122:	2b1f      	cmp	r3, #31
 8001124:	f67f af4a 	bls.w	8000fbc <LED_fillBuffer+0x14>
            }
        }
    }
}
 8001128:	bf00      	nop
 800112a:	bf00      	nop
 800112c:	3724      	adds	r7, #36	@ 0x24
 800112e:	46bd      	mov	sp, r7
 8001130:	f85d 7b04 	ldr.w	r7, [sp], #4
 8001134:	4770      	bx	lr
 8001136:	bf00      	nop
 8001138:	08004da4 	.word	0x08004da4
 800113c:	08004ea4 	.word	0x08004ea4
 8001140:	08004fa4 	.word	0x08004fa4
 8001144:	00000000 	.word	0x00000000

08001148 <LED_waveEffect>:
#include <string.h>
#include "main.h"
#include "led.h"
#include "led_programs.h"

void LED_waveEffect(RGB_t *frame) {
 8001148:	b580      	push	{r7, lr}
 800114a:	b086      	sub	sp, #24
 800114c:	af00      	add	r7, sp, #0
 800114e:	6078      	str	r0, [r7, #4]
    static float time;
    float xx;
    uint8_t r, g, b;

    if(time > 2*M_PI) {
 8001150:	4ba5      	ldr	r3, [pc, #660]	@ (80013e8 <LED_waveEffect+0x2a0>)
 8001152:	681b      	ldr	r3, [r3, #0]
 8001154:	4618      	mov	r0, r3
 8001156:	f7ff fae5 	bl	8000724 <__aeabi_f2d>
 800115a:	a39d      	add	r3, pc, #628	@ (adr r3, 80013d0 <LED_waveEffect+0x288>)
 800115c:	e9d3 2300 	ldrd	r2, r3, [r3]
 8001160:	f7ff fbb6 	bl	80008d0 <__aeabi_dcmpgt>
 8001164:	4603      	mov	r3, r0
 8001166:	2b00      	cmp	r3, #0
 8001168:	d003      	beq.n	8001172 <LED_waveEffect+0x2a>
        time = 0.0;
 800116a:	4b9f      	ldr	r3, [pc, #636]	@ (80013e8 <LED_waveEffect+0x2a0>)
 800116c:	f04f 0200 	mov.w	r2, #0
 8001170:	601a      	str	r2, [r3, #0]
    }

    for(uint8_t y = 0; y < HEIGHT; y++) {
 8001172:	2300      	movs	r3, #0
 8001174:	75fb      	strb	r3, [r7, #23]
 8001176:	e10e      	b.n	8001396 <LED_waveEffect+0x24e>
        for(uint8_t x = 0; x < WIDTH; x++) {
 8001178:	2300      	movs	r3, #0
 800117a:	75bb      	strb	r3, [r7, #22]
 800117c:	e104      	b.n	8001388 <LED_waveEffect+0x240>
            xx = mapf(x, 0, WIDTH-1, 0, 2*M_PI);
 800117e:	7dbb      	ldrb	r3, [r7, #22]
 8001180:	ee07 3a90 	vmov	s15, r3
 8001184:	eef8 7a67 	vcvt.f32.u32	s15, s15
 8001188:	ed9f 2a98 	vldr	s4, [pc, #608]	@ 80013ec <LED_waveEffect+0x2a4>
 800118c:	eddf 1a98 	vldr	s3, [pc, #608]	@ 80013f0 <LED_waveEffect+0x2a8>
 8001190:	ed9f 1a98 	vldr	s2, [pc, #608]	@ 80013f4 <LED_waveEffect+0x2ac>
 8001194:	eddf 0a96 	vldr	s1, [pc, #600]	@ 80013f0 <LED_waveEffect+0x2a8>
 8001198:	eeb0 0a67 	vmov.f32	s0, s15
 800119c:	f7ff feb2 	bl	8000f04 <mapf>
 80011a0:	ed87 0a04 	vstr	s0, [r7, #16]
            r = 16 + 100 * (bound(sinf(xx + time + 2*M_PI/3), 0.5, -0.5) + 0.5);
 80011a4:	4b90      	ldr	r3, [pc, #576]	@ (80013e8 <LED_waveEffect+0x2a0>)
 80011a6:	ed93 7a00 	vldr	s14, [r3]
 80011aa:	edd7 7a04 	vldr	s15, [r7, #16]
 80011ae:	ee77 7a27 	vadd.f32	s15, s14, s15
 80011b2:	ee17 0a90 	vmov	r0, s15
 80011b6:	f7ff fab5 	bl	8000724 <__aeabi_f2d>
 80011ba:	a387      	add	r3, pc, #540	@ (adr r3, 80013d8 <LED_waveEffect+0x290>)
 80011bc:	e9d3 2300 	ldrd	r2, r3, [r3]
 80011c0:	f7ff f952 	bl	8000468 <__adddf3>
 80011c4:	4602      	mov	r2, r0
 80011c6:	460b      	mov	r3, r1
 80011c8:	4610      	mov	r0, r2
 80011ca:	4619      	mov	r1, r3
 80011cc:	f7ff fbaa 	bl	8000924 <__aeabi_d2f>
 80011d0:	4603      	mov	r3, r0
 80011d2:	ee00 3a10 	vmov	s0, r3
 80011d6:	f003 f82f 	bl	8004238 <sinf>
 80011da:	eef0 7a40 	vmov.f32	s15, s0
 80011de:	eebe 1a00 	vmov.f32	s2, #224	@ 0xbf000000 -0.5
 80011e2:	eef6 0a00 	vmov.f32	s1, #96	@ 0x3f000000  0.5
 80011e6:	eeb0 0a67 	vmov.f32	s0, s15
 80011ea:	f7ff febe 	bl	8000f6a <bound>
 80011ee:	ee10 3a10 	vmov	r3, s0
 80011f2:	4618      	mov	r0, r3
 80011f4:	f7ff fa96 	bl	8000724 <__aeabi_f2d>
 80011f8:	f04f 0200 	mov.w	r2, #0
 80011fc:	4b7e      	ldr	r3, [pc, #504]	@ (80013f8 <LED_waveEffect+0x2b0>)
 80011fe:	f7ff f933 	bl	8000468 <__adddf3>
 8001202:	4602      	mov	r2, r0
 8001204:	460b      	mov	r3, r1
 8001206:	4610      	mov	r0, r2
 8001208:	4619      	mov	r1, r3
 800120a:	f04f 0200 	mov.w	r2, #0
 800120e:	4b7b      	ldr	r3, [pc, #492]	@ (80013fc <LED_waveEffect+0x2b4>)
 8001210:	f7fe fffa 	bl	8000208 <__aeabi_dmul>
 8001214:	4602      	mov	r2, r0
 8001216:	460b      	mov	r3, r1
 8001218:	4610      	mov	r0, r2
 800121a:	4619      	mov	r1, r3
 800121c:	f04f 0200 	mov.w	r2, #0
 8001220:	4b77      	ldr	r3, [pc, #476]	@ (8001400 <LED_waveEffect+0x2b8>)
 8001222:	f7ff f921 	bl	8000468 <__adddf3>
 8001226:	4602      	mov	r2, r0
 8001228:	460b      	mov	r3, r1
 800122a:	4610      	mov	r0, r2
 800122c:	4619      	mov	r1, r3
 800122e:	f7ff fb59 	bl	80008e4 <__aeabi_d2uiz>
 8001232:	4603      	mov	r3, r0
 8001234:	73fb      	strb	r3, [r7, #15]
            g = 16 + 100 * (bound(sinf(xx + time - 2*M_PI/3), 0.5, -0.5) + 0.5);
 8001236:	4b6c      	ldr	r3, [pc, #432]	@ (80013e8 <LED_waveEffect+0x2a0>)
 8001238:	ed93 7a00 	vldr	s14, [r3]
 800123c:	edd7 7a04 	vldr	s15, [r7, #16]
 8001240:	ee77 7a27 	vadd.f32	s15, s14, s15
 8001244:	ee17 0a90 	vmov	r0, s15
 8001248:	f7ff fa6c 	bl	8000724 <__aeabi_f2d>
 800124c:	a362      	add	r3, pc, #392	@ (adr r3, 80013d8 <LED_waveEffect+0x290>)
 800124e:	e9d3 2300 	ldrd	r2, r3, [r3]
 8001252:	f7ff f907 	bl	8000464 <__aeabi_dsub>
 8001256:	4602      	mov	r2, r0
 8001258:	460b      	mov	r3, r1
 800125a:	4610      	mov	r0, r2
 800125c:	4619      	mov	r1, r3
 800125e:	f7ff fb61 	bl	8000924 <__aeabi_d2f>
 8001262:	4603      	mov	r3, r0
 8001264:	ee00 3a10 	vmov	s0, r3
 8001268:	f002 ffe6 	bl	8004238 <sinf>
 800126c:	eef0 7a40 	vmov.f32	s15, s0
 8001270:	eebe 1a00 	vmov.f32	s2, #224	@ 0xbf000000 -0.5
 8001274:	eef6 0a00 	vmov.f32	s1, #96	@ 0x3f000000  0.5
 8001278:	eeb0 0a67 	vmov.f32	s0, s15
 800127c:	f7ff fe75 	bl	8000f6a <bound>
 8001280:	ee10 3a10 	vmov	r3, s0
 8001284:	4618      	mov	r0, r3
 8001286:	f7ff fa4d 	bl	8000724 <__aeabi_f2d>
 800128a:	f04f 0200 	mov.w	r2, #0
 800128e:	4b5a      	ldr	r3, [pc, #360]	@ (80013f8 <LED_waveEffect+0x2b0>)
 8001290:	f7ff f8ea 	bl	8000468 <__adddf3>
 8001294:	4602      	mov	r2, r0
 8001296:	460b      	mov	r3, r1
 8001298:	4610      	mov	r0, r2
 800129a:	4619      	mov	r1, r3
 800129c:	f04f 0200 	mov.w	r2, #0
 80012a0:	4b56      	ldr	r3, [pc, #344]	@ (80013fc <LED_waveEffect+0x2b4>)
 80012a2:	f7fe ffb1 	bl	8000208 <__aeabi_dmul>
 80012a6:	4602      	mov	r2, r0
 80012a8:	460b      	mov	r3, r1
 80012aa:	4610      	mov	r0, r2
 80012ac:	4619      	mov	r1, r3
 80012ae:	f04f 0200 	mov.w	r2, #0
 80012b2:	4b53      	ldr	r3, [pc, #332]	@ (8001400 <LED_waveEffect+0x2b8>)
 80012b4:	f7ff f8d8 	bl	8000468 <__adddf3>
 80012b8:	4602      	mov	r2, r0
 80012ba:	460b      	mov	r3, r1
 80012bc:	4610      	mov	r0, r2
 80012be:	4619      	mov	r1, r3
 80012c0:	f7ff fb10 	bl	80008e4 <__aeabi_d2uiz>
 80012c4:	4603      	mov	r3, r0
 80012c6:	73bb      	strb	r3, [r7, #14]
            b = 16 + 100 * (bound(sinf(xx + time         ), 0.5, -0.5) + 0.5);
 80012c8:	4b47      	ldr	r3, [pc, #284]	@ (80013e8 <LED_waveEffect+0x2a0>)
 80012ca:	ed93 7a00 	vldr	s14, [r3]
 80012ce:	edd7 7a04 	vldr	s15, [r7, #16]
 80012d2:	ee77 7a27 	vadd.f32	s15, s14, s15
 80012d6:	eeb0 0a67 	vmov.f32	s0, s15
 80012da:	f002 ffad 	bl	8004238 <sinf>
 80012de:	eef0 7a40 	vmov.f32	s15, s0
 80012e2:	eebe 1a00 	vmov.f32	s2, #224	@ 0xbf000000 -0.5
 80012e6:	eef6 0a00 	vmov.f32	s1, #96	@ 0x3f000000  0.5
 80012ea:	eeb0 0a67 	vmov.f32	s0, s15
 80012ee:	f7ff fe3c 	bl	8000f6a <bound>
 80012f2:	ee10 3a10 	vmov	r3, s0
 80012f6:	4618      	mov	r0, r3
 80012f8:	f7ff fa14 	bl	8000724 <__aeabi_f2d>
 80012fc:	f04f 0200 	mov.w	r2, #0
 8001300:	4b3d      	ldr	r3, [pc, #244]	@ (80013f8 <LED_waveEffect+0x2b0>)
 8001302:	f7ff f8b1 	bl	8000468 <__adddf3>
 8001306:	4602      	mov	r2, r0
 8001308:	460b      	mov	r3, r1
 800130a:	4610      	mov	r0, r2
 800130c:	4619      	mov	r1, r3
 800130e:	f04f 0200 	mov.w	r2, #0
 8001312:	4b3a      	ldr	r3, [pc, #232]	@ (80013fc <LED_waveEffect+0x2b4>)
 8001314:	f7fe ff78 	bl	8000208 <__aeabi_dmul>
 8001318:	4602      	mov	r2, r0
 800131a:	460b      	mov	r3, r1
 800131c:	4610      	mov	r0, r2
 800131e:	4619      	mov	r1, r3
 8001320:	f04f 0200 	mov.w	r2, #0
 8001324:	4b36      	ldr	r3, [pc, #216]	@ (8001400 <LED_waveEffect+0x2b8>)
 8001326:	f7ff f89f 	bl	8000468 <__adddf3>
 800132a:	4602      	mov	r2, r0
 800132c:	460b      	mov	r3, r1
 800132e:	4610      	mov	r0, r2
 8001330:	4619      	mov	r1, r3
 8001332:	f7ff fad7 	bl	80008e4 <__aeabi_d2uiz>
 8001336:	4603      	mov	r3, r0
 8001338:	737b      	strb	r3, [r7, #13]
            PIXEL(frame, x, y).R = r;
 800133a:	7dfb      	ldrb	r3, [r7, #23]
 800133c:	019a      	lsls	r2, r3, #6
 800133e:	7dbb      	ldrb	r3, [r7, #22]
 8001340:	4413      	add	r3, r2
 8001342:	461a      	mov	r2, r3
 8001344:	4613      	mov	r3, r2
 8001346:	005b      	lsls	r3, r3, #1
 8001348:	4413      	add	r3, r2
 800134a:	687a      	ldr	r2, [r7, #4]
 800134c:	4413      	add	r3, r2
 800134e:	7bfa      	ldrb	r2, [r7, #15]
 8001350:	701a      	strb	r2, [r3, #0]
            PIXEL(frame, x, y).G = g;
 8001352:	7dfb      	ldrb	r3, [r7, #23]
 8001354:	019a      	lsls	r2, r3, #6
 8001356:	7dbb      	ldrb	r3, [r7, #22]
 8001358:	4413      	add	r3, r2
 800135a:	461a      	mov	r2, r3
 800135c:	4613      	mov	r3, r2
 800135e:	005b      	lsls	r3, r3, #1
 8001360:	4413      	add	r3, r2
 8001362:	687a      	ldr	r2, [r7, #4]
 8001364:	4413      	add	r3, r2
 8001366:	7bba      	ldrb	r2, [r7, #14]
 8001368:	705a      	strb	r2, [r3, #1]
            PIXEL(frame, x, y).B = b;
 800136a:	7dfb      	ldrb	r3, [r7, #23]
 800136c:	019a      	lsls	r2, r3, #6
 800136e:	7dbb      	ldrb	r3, [r7, #22]
 8001370:	4413      	add	r3, r2
 8001372:	461a      	mov	r2, r3
 8001374:	4613      	mov	r3, r2
 8001376:	005b      	lsls	r3, r3, #1
 8001378:	4413      	add	r3, r2
 800137a:	687a      	ldr	r2, [r7, #4]
 800137c:	4413      	add	r3, r2
 800137e:	7b7a      	ldrb	r2, [r7, #13]
 8001380:	709a      	strb	r2, [r3, #2]
        for(uint8_t x = 0; x < WIDTH; x++) {
 8001382:	7dbb      	ldrb	r3, [r7, #22]
 8001384:	3301      	adds	r3, #1
 8001386:	75bb      	strb	r3, [r7, #22]
 8001388:	7dbb      	ldrb	r3, [r7, #22]
 800138a:	2b3f      	cmp	r3, #63	@ 0x3f
 800138c:	f67f aef7 	bls.w	800117e <LED_waveEffect+0x36>
    for(uint8_t y = 0; y < HEIGHT; y++) {
 8001390:	7dfb      	ldrb	r3, [r7, #23]
 8001392:	3301      	adds	r3, #1
 8001394:	75fb      	strb	r3, [r7, #23]
 8001396:	7dfb      	ldrb	r3, [r7, #23]
 8001398:	2b3f      	cmp	r3, #63	@ 0x3f
 800139a:	f67f aeed 	bls.w	8001178 <LED_waveEffect+0x30>
        }
    }
    time += 0.1;
 800139e:	4b12      	ldr	r3, [pc, #72]	@ (80013e8 <LED_waveEffect+0x2a0>)
 80013a0:	681b      	ldr	r3, [r3, #0]
 80013a2:	4618      	mov	r0, r3
 80013a4:	f7ff f9be 	bl	8000724 <__aeabi_f2d>
 80013a8:	a30d      	add	r3, pc, #52	@ (adr r3, 80013e0 <LED_waveEffect+0x298>)
 80013aa:	e9d3 2300 	ldrd	r2, r3, [r3]
 80013ae:	f7ff f85b 	bl	8000468 <__adddf3>
 80013b2:	4602      	mov	r2, r0
 80013b4:	460b      	mov	r3, r1
 80013b6:	4610      	mov	r0, r2
 80013b8:	4619      	mov	r1, r3
 80013ba:	f7ff fab3 	bl	8000924 <__aeabi_d2f>
 80013be:	4603      	mov	r3, r0
 80013c0:	4a09      	ldr	r2, [pc, #36]	@ (80013e8 <LED_waveEffect+0x2a0>)
 80013c2:	6013      	str	r3, [r2, #0]
}
 80013c4:	bf00      	nop
 80013c6:	3718      	adds	r7, #24
 80013c8:	46bd      	mov	sp, r7
 80013ca:	bd80      	pop	{r7, pc}
 80013cc:	f3af 8000 	nop.w
 80013d0:	54442d18 	.word	0x54442d18
 80013d4:	401921fb 	.word	0x401921fb
 80013d8:	382d7365 	.word	0x382d7365
 80013dc:	4000c152 	.word	0x4000c152
 80013e0:	9999999a 	.word	0x9999999a
 80013e4:	3fb99999 	.word	0x3fb99999
 80013e8:	2000b49c 	.word	0x2000b49c
 80013ec:	40c90fdb 	.word	0x40c90fdb
 80013f0:	00000000 	.word	0x00000000
 80013f4:	427c0000 	.word	0x427c0000
 80013f8:	3fe00000 	.word	0x3fe00000
 80013fc:	40590000 	.word	0x40590000
 8001400:	40300000 	.word	0x40300000
 8001404:	00000000 	.word	0x00000000

08001408 <LED_plasmaEffect>:

void LED_plasmaEffect(RGB_t *frame) {
 8001408:	b5b0      	push	{r4, r5, r7, lr}
 800140a:	b08a      	sub	sp, #40	@ 0x28
 800140c:	af00      	add	r7, sp, #0
 800140e:	6078      	str	r0, [r7, #4]
    static float time;
    uint8_t r, g, b;
    float xx, yy;
    float v;
    float delta = 0.025;
 8001410:	4b25      	ldr	r3, [pc, #148]	@ (80014a8 <LED_plasmaEffect+0xa0>)
 8001412:	623b      	str	r3, [r7, #32]

    time += 0.025;
 8001414:	4b25      	ldr	r3, [pc, #148]	@ (80014ac <LED_plasmaEffect+0xa4>)
 8001416:	681b      	ldr	r3, [r3, #0]
 8001418:	4618      	mov	r0, r3
 800141a:	f7ff f983 	bl	8000724 <__aeabi_f2d>
 800141e:	a31e      	add	r3, pc, #120	@ (adr r3, 8001498 <LED_plasmaEffect+0x90>)
 8001420:	e9d3 2300 	ldrd	r2, r3, [r3]
 8001424:	f7ff f820 	bl	8000468 <__adddf3>
 8001428:	4602      	mov	r2, r0
 800142a:	460b      	mov	r3, r1
 800142c:	4610      	mov	r0, r2
 800142e:	4619      	mov	r1, r3
 8001430:	f7ff fa78 	bl	8000924 <__aeabi_d2f>
 8001434:	4603      	mov	r3, r0
 8001436:	4a1d      	ldr	r2, [pc, #116]	@ (80014ac <LED_plasmaEffect+0xa4>)
 8001438:	6013      	str	r3, [r2, #0]
    if(time > 12*M_PI) {
 800143a:	4b1c      	ldr	r3, [pc, #112]	@ (80014ac <LED_plasmaEffect+0xa4>)
 800143c:	681b      	ldr	r3, [r3, #0]
 800143e:	4618      	mov	r0, r3
 8001440:	f7ff f970 	bl	8000724 <__aeabi_f2d>
 8001444:	a316      	add	r3, pc, #88	@ (adr r3, 80014a0 <LED_plasmaEffect+0x98>)
 8001446:	e9d3 2300 	ldrd	r2, r3, [r3]
 800144a:	f7ff fa41 	bl	80008d0 <__aeabi_dcmpgt>
 800144e:	4603      	mov	r3, r0
 8001450:	2b00      	cmp	r3, #0
 8001452:	d005      	beq.n	8001460 <LED_plasmaEffect+0x58>
        delta *= -1;
 8001454:	edd7 7a08 	vldr	s15, [r7, #32]
 8001458:	eef1 7a67 	vneg.f32	s15, s15
 800145c:	edc7 7a08 	vstr	s15, [r7, #32]
    }

    for(uint8_t y = 0; y < HEIGHT; y++) {
 8001460:	2300      	movs	r3, #0
 8001462:	f887 3027 	strb.w	r3, [r7, #39]	@ 0x27
 8001466:	e1b0      	b.n	80017ca <LED_plasmaEffect+0x3c2>
        yy = mapf(y, 0, HEIGHT-1, 0, 2*M_PI);
 8001468:	f897 3027 	ldrb.w	r3, [r7, #39]	@ 0x27
 800146c:	ee07 3a90 	vmov	s15, r3
 8001470:	eef8 7a67 	vcvt.f32.u32	s15, s15
 8001474:	ed9f 2a0e 	vldr	s4, [pc, #56]	@ 80014b0 <LED_plasmaEffect+0xa8>
 8001478:	eddf 1a0e 	vldr	s3, [pc, #56]	@ 80014b4 <LED_plasmaEffect+0xac>
 800147c:	ed9f 1a0e 	vldr	s2, [pc, #56]	@ 80014b8 <LED_plasmaEffect+0xb0>
 8001480:	eddf 0a0c 	vldr	s1, [pc, #48]	@ 80014b4 <LED_plasmaEffect+0xac>
 8001484:	eeb0 0a67 	vmov.f32	s0, s15
 8001488:	f7ff fd3c 	bl	8000f04 <mapf>
 800148c:	ed87 0a07 	vstr	s0, [r7, #28]
        for(uint8_t x = 0; x < WIDTH; x++) {
 8001490:	2300      	movs	r3, #0
 8001492:	f887 3026 	strb.w	r3, [r7, #38]	@ 0x26
 8001496:	e18e      	b.n	80017b6 <LED_plasmaEffect+0x3ae>
 8001498:	9999999a 	.word	0x9999999a
 800149c:	3f999999 	.word	0x3f999999
 80014a0:	7f3321d2 	.word	0x7f3321d2
 80014a4:	4042d97c 	.word	0x4042d97c
 80014a8:	3ccccccd 	.word	0x3ccccccd
 80014ac:	2000b4a0 	.word	0x2000b4a0
 80014b0:	40c90fdb 	.word	0x40c90fdb
 80014b4:	00000000 	.word	0x00000000
 80014b8:	427c0000 	.word	0x427c0000
            xx = mapf(x, 0, WIDTH-1, 0, 2*M_PI);
 80014bc:	f897 3026 	ldrb.w	r3, [r7, #38]	@ 0x26
 80014c0:	ee07 3a90 	vmov	s15, r3
 80014c4:	eef8 7a67 	vcvt.f32.u32	s15, s15
 80014c8:	ed1f 2a07 	vldr	s4, [pc, #-28]	@ 80014b0 <LED_plasmaEffect+0xa8>
 80014cc:	ed5f 1a07 	vldr	s3, [pc, #-28]	@ 80014b4 <LED_plasmaEffect+0xac>
 80014d0:	ed1f 1a07 	vldr	s2, [pc, #-28]	@ 80014b8 <LED_plasmaEffect+0xb0>
 80014d4:	ed5f 0a09 	vldr	s1, [pc, #-36]	@ 80014b4 <LED_plasmaEffect+0xac>
 80014d8:	eeb0 0a67 	vmov.f32	s0, s15
 80014dc:	f7ff fd12 	bl	8000f04 <mapf>
 80014e0:	ed87 0a06 	vstr	s0, [r7, #24]

            v = sinf(xx + time);
 80014e4:	4bc2      	ldr	r3, [pc, #776]	@ (80017f0 <LED_plasmaEffect+0x3e8>)
 80014e6:	ed93 7a00 	vldr	s14, [r3]
 80014ea:	edd7 7a06 	vldr	s15, [r7, #24]
 80014ee:	ee77 7a27 	vadd.f32	s15, s14, s15
 80014f2:	eeb0 0a67 	vmov.f32	s0, s15
 80014f6:	f002 fe9f 	bl	8004238 <sinf>
 80014fa:	ed87 0a05 	vstr	s0, [r7, #20]
            v += sinf((yy + time) / 2.0);
 80014fe:	4bbc      	ldr	r3, [pc, #752]	@ (80017f0 <LED_plasmaEffect+0x3e8>)
 8001500:	ed93 7a00 	vldr	s14, [r3]
 8001504:	edd7 7a07 	vldr	s15, [r7, #28]
 8001508:	ee77 7a27 	vadd.f32	s15, s14, s15
 800150c:	eef0 6a00 	vmov.f32	s13, #0	@ 0x40000000  2.0
 8001510:	ee87 7aa6 	vdiv.f32	s14, s15, s13
 8001514:	eeb0 0a47 	vmov.f32	s0, s14
 8001518:	f002 fe8e 	bl	8004238 <sinf>
 800151c:	eeb0 7a40 	vmov.f32	s14, s0
 8001520:	edd7 7a05 	vldr	s15, [r7, #20]
 8001524:	ee77 7a87 	vadd.f32	s15, s15, s14
 8001528:	edc7 7a05 	vstr	s15, [r7, #20]
            v += sinf((xx + yy + time) / 2.0);
 800152c:	ed97 7a06 	vldr	s14, [r7, #24]
 8001530:	edd7 7a07 	vldr	s15, [r7, #28]
 8001534:	ee37 7a27 	vadd.f32	s14, s14, s15
 8001538:	4bad      	ldr	r3, [pc, #692]	@ (80017f0 <LED_plasmaEffect+0x3e8>)
 800153a:	edd3 7a00 	vldr	s15, [r3]
 800153e:	ee77 7a27 	vadd.f32	s15, s14, s15
 8001542:	eef0 6a00 	vmov.f32	s13, #0	@ 0x40000000  2.0
 8001546:	ee87 7aa6 	vdiv.f32	s14, s15, s13
 800154a:	eeb0 0a47 	vmov.f32	s0, s14
 800154e:	f002 fe73 	bl	8004238 <sinf>
 8001552:	eeb0 7a40 	vmov.f32	s14, s0
 8001556:	edd7 7a05 	vldr	s15, [r7, #20]
 800155a:	ee77 7a87 	vadd.f32	s15, s15, s14
 800155e:	edc7 7a05 	vstr	s15, [r7, #20]
            float cx = xx + .5 * sinf(time/5.0);
 8001562:	69b8      	ldr	r0, [r7, #24]
 8001564:	f7ff f8de 	bl	8000724 <__aeabi_f2d>
 8001568:	4604      	mov	r4, r0
 800156a:	460d      	mov	r5, r1
 800156c:	4ba0      	ldr	r3, [pc, #640]	@ (80017f0 <LED_plasmaEffect+0x3e8>)
 800156e:	edd3 7a00 	vldr	s15, [r3]
 8001572:	eef1 6a04 	vmov.f32	s13, #20	@ 0x40a00000  5.0
 8001576:	ee87 7aa6 	vdiv.f32	s14, s15, s13
 800157a:	eeb0 0a47 	vmov.f32	s0, s14
 800157e:	f002 fe5b 	bl	8004238 <sinf>
 8001582:	ee10 3a10 	vmov	r3, s0
 8001586:	4618      	mov	r0, r3
 8001588:	f7ff f8cc 	bl	8000724 <__aeabi_f2d>
 800158c:	f04f 0200 	mov.w	r2, #0
 8001590:	4b98      	ldr	r3, [pc, #608]	@ (80017f4 <LED_plasmaEffect+0x3ec>)
 8001592:	f7fe fe39 	bl	8000208 <__aeabi_dmul>
 8001596:	4602      	mov	r2, r0
 8001598:	460b      	mov	r3, r1
 800159a:	4620      	mov	r0, r4
 800159c:	4629      	mov	r1, r5
 800159e:	f7fe ff63 	bl	8000468 <__adddf3>
 80015a2:	4602      	mov	r2, r0
 80015a4:	460b      	mov	r3, r1
 80015a6:	4610      	mov	r0, r2
 80015a8:	4619      	mov	r1, r3
 80015aa:	f7ff f9bb 	bl	8000924 <__aeabi_d2f>
 80015ae:	4603      	mov	r3, r0
 80015b0:	613b      	str	r3, [r7, #16]
            float cy = yy + .5 * cosf(time/3.0);
 80015b2:	69f8      	ldr	r0, [r7, #28]
 80015b4:	f7ff f8b6 	bl	8000724 <__aeabi_f2d>
 80015b8:	4604      	mov	r4, r0
 80015ba:	460d      	mov	r5, r1
 80015bc:	4b8c      	ldr	r3, [pc, #560]	@ (80017f0 <LED_plasmaEffect+0x3e8>)
 80015be:	edd3 7a00 	vldr	s15, [r3]
 80015c2:	eef0 6a08 	vmov.f32	s13, #8	@ 0x40400000  3.0
 80015c6:	ee87 7aa6 	vdiv.f32	s14, s15, s13
 80015ca:	eeb0 0a47 	vmov.f32	s0, s14
 80015ce:	f002 fdef 	bl	80041b0 <cosf>
 80015d2:	ee10 3a10 	vmov	r3, s0
 80015d6:	4618      	mov	r0, r3
 80015d8:	f7ff f8a4 	bl	8000724 <__aeabi_f2d>
 80015dc:	f04f 0200 	mov.w	r2, #0
 80015e0:	4b84      	ldr	r3, [pc, #528]	@ (80017f4 <LED_plasmaEffect+0x3ec>)
 80015e2:	f7fe fe11 	bl	8000208 <__aeabi_dmul>
 80015e6:	4602      	mov	r2, r0
 80015e8:	460b      	mov	r3, r1
 80015ea:	4620      	mov	r0, r4
 80015ec:	4629      	mov	r1, r5
 80015ee:	f7fe ff3b 	bl	8000468 <__adddf3>
 80015f2:	4602      	mov	r2, r0
 80015f4:	460b      	mov	r3, r1
 80015f6:	4610      	mov	r0, r2
 80015f8:	4619      	mov	r1, r3
 80015fa:	f7ff f993 	bl	8000924 <__aeabi_d2f>
 80015fe:	4603      	mov	r3, r0
 8001600:	60fb      	str	r3, [r7, #12]
            v += sinf(sqrtf((cx*cx+cy*cy)+1)+time);
 8001602:	edd7 7a04 	vldr	s15, [r7, #16]
 8001606:	ee27 7aa7 	vmul.f32	s14, s15, s15
 800160a:	edd7 7a03 	vldr	s15, [r7, #12]
 800160e:	ee67 7aa7 	vmul.f32	s15, s15, s15
 8001612:	ee77 7a27 	vadd.f32	s15, s14, s15
 8001616:	eeb7 7a00 	vmov.f32	s14, #112	@ 0x3f800000  1.0
 800161a:	ee77 7a87 	vadd.f32	s15, s15, s14
 800161e:	eeb0 0a67 	vmov.f32	s0, s15
 8001622:	f002 fda7 	bl	8004174 <sqrtf>
 8001626:	eeb0 7a40 	vmov.f32	s14, s0
 800162a:	4b71      	ldr	r3, [pc, #452]	@ (80017f0 <LED_plasmaEffect+0x3e8>)
 800162c:	edd3 7a00 	vldr	s15, [r3]
 8001630:	ee77 7a27 	vadd.f32	s15, s14, s15
 8001634:	eeb0 0a67 	vmov.f32	s0, s15
 8001638:	f002 fdfe 	bl	8004238 <sinf>
 800163c:	eeb0 7a40 	vmov.f32	s14, s0
 8001640:	edd7 7a05 	vldr	s15, [r7, #20]
 8001644:	ee77 7a87 	vadd.f32	s15, s15, s14
 8001648:	edc7 7a05 	vstr	s15, [r7, #20]
            v /= 2.0;
 800164c:	ed97 7a05 	vldr	s14, [r7, #20]
 8001650:	eef0 6a00 	vmov.f32	s13, #0	@ 0x40000000  2.0
 8001654:	eec7 7a26 	vdiv.f32	s15, s14, s13
 8001658:	edc7 7a05 	vstr	s15, [r7, #20]
            r = 255 * (sinf(v * M_PI) + 1) / 2;
 800165c:	6978      	ldr	r0, [r7, #20]
 800165e:	f7ff f861 	bl	8000724 <__aeabi_f2d>
 8001662:	a35f      	add	r3, pc, #380	@ (adr r3, 80017e0 <LED_plasmaEffect+0x3d8>)
 8001664:	e9d3 2300 	ldrd	r2, r3, [r3]
 8001668:	f7fe fdce 	bl	8000208 <__aeabi_dmul>
 800166c:	4602      	mov	r2, r0
 800166e:	460b      	mov	r3, r1
 8001670:	4610      	mov	r0, r2
 8001672:	4619      	mov	r1, r3
 8001674:	f7ff f956 	bl	8000924 <__aeabi_d2f>
 8001678:	4603      	mov	r3, r0
 800167a:	ee00 3a10 	vmov	s0, r3
 800167e:	f002 fddb 	bl	8004238 <sinf>
 8001682:	eef0 7a40 	vmov.f32	s15, s0
 8001686:	eeb7 7a00 	vmov.f32	s14, #112	@ 0x3f800000  1.0
 800168a:	ee77 7a87 	vadd.f32	s15, s15, s14
 800168e:	ed9f 7a5a 	vldr	s14, [pc, #360]	@ 80017f8 <LED_plasmaEffect+0x3f0>
 8001692:	ee27 7a87 	vmul.f32	s14, s15, s14
 8001696:	eef0 6a00 	vmov.f32	s13, #0	@ 0x40000000  2.0
 800169a:	eec7 7a26 	vdiv.f32	s15, s14, s13
 800169e:	eefc 7ae7 	vcvt.u32.f32	s15, s15
 80016a2:	edc7 7a00 	vstr	s15, [r7]
 80016a6:	783b      	ldrb	r3, [r7, #0]
 80016a8:	72fb      	strb	r3, [r7, #11]
            g = 255 * (cosf(v * M_PI) + 1) / 2;
 80016aa:	6978      	ldr	r0, [r7, #20]
 80016ac:	f7ff f83a 	bl	8000724 <__aeabi_f2d>
 80016b0:	a34b      	add	r3, pc, #300	@ (adr r3, 80017e0 <LED_plasmaEffect+0x3d8>)
 80016b2:	e9d3 2300 	ldrd	r2, r3, [r3]
 80016b6:	f7fe fda7 	bl	8000208 <__aeabi_dmul>
 80016ba:	4602      	mov	r2, r0
 80016bc:	460b      	mov	r3, r1
 80016be:	4610      	mov	r0, r2
 80016c0:	4619      	mov	r1, r3
 80016c2:	f7ff f92f 	bl	8000924 <__aeabi_d2f>
 80016c6:	4603      	mov	r3, r0
 80016c8:	ee00 3a10 	vmov	s0, r3
 80016cc:	f002 fd70 	bl	80041b0 <cosf>
 80016d0:	eef0 7a40 	vmov.f32	s15, s0
 80016d4:	eeb7 7a00 	vmov.f32	s14, #112	@ 0x3f800000  1.0
 80016d8:	ee77 7a87 	vadd.f32	s15, s15, s14
 80016dc:	ed9f 7a46 	vldr	s14, [pc, #280]	@ 80017f8 <LED_plasmaEffect+0x3f0>
 80016e0:	ee27 7a87 	vmul.f32	s14, s15, s14
 80016e4:	eef0 6a00 	vmov.f32	s13, #0	@ 0x40000000  2.0
 80016e8:	eec7 7a26 	vdiv.f32	s15, s14, s13
 80016ec:	eefc 7ae7 	vcvt.u32.f32	s15, s15
 80016f0:	edc7 7a00 	vstr	s15, [r7]
 80016f4:	783b      	ldrb	r3, [r7, #0]
 80016f6:	72bb      	strb	r3, [r7, #10]
            b = 128 * (sinf(v * M_PI + 2*M_PI/3) + 1) / 2;
 80016f8:	6978      	ldr	r0, [r7, #20]
 80016fa:	f7ff f813 	bl	8000724 <__aeabi_f2d>
 80016fe:	a338      	add	r3, pc, #224	@ (adr r3, 80017e0 <LED_plasmaEffect+0x3d8>)
 8001700:	e9d3 2300 	ldrd	r2, r3, [r3]
 8001704:	f7fe fd80 	bl	8000208 <__aeabi_dmul>
 8001708:	4602      	mov	r2, r0
 800170a:	460b      	mov	r3, r1
 800170c:	4610      	mov	r0, r2
 800170e:	4619      	mov	r1, r3
 8001710:	a335      	add	r3, pc, #212	@ (adr r3, 80017e8 <LED_plasmaEffect+0x3e0>)
 8001712:	e9d3 2300 	ldrd	r2, r3, [r3]
 8001716:	f7fe fea7 	bl	8000468 <__adddf3>
 800171a:	4602      	mov	r2, r0
 800171c:	460b      	mov	r3, r1
 800171e:	4610      	mov	r0, r2
 8001720:	4619      	mov	r1, r3
 8001722:	f7ff f8ff 	bl	8000924 <__aeabi_d2f>
 8001726:	4603      	mov	r3, r0
 8001728:	ee00 3a10 	vmov	s0, r3
 800172c:	f002 fd84 	bl	8004238 <sinf>
 8001730:	eef0 7a40 	vmov.f32	s15, s0
 8001734:	eeb7 7a00 	vmov.f32	s14, #112	@ 0x3f800000  1.0
 8001738:	ee77 7a87 	vadd.f32	s15, s15, s14
 800173c:	ed9f 7a2f 	vldr	s14, [pc, #188]	@ 80017fc <LED_plasmaEffect+0x3f4>
 8001740:	ee27 7a87 	vmul.f32	s14, s15, s14
 8001744:	eef0 6a00 	vmov.f32	s13, #0	@ 0x40000000  2.0
 8001748:	eec7 7a26 	vdiv.f32	s15, s14, s13
 800174c:	eefc 7ae7 	vcvt.u32.f32	s15, s15
 8001750:	edc7 7a00 	vstr	s15, [r7]
 8001754:	783b      	ldrb	r3, [r7, #0]
 8001756:	727b      	strb	r3, [r7, #9]
            PIXEL(frame, x, y).R = r;
 8001758:	f897 3027 	ldrb.w	r3, [r7, #39]	@ 0x27
 800175c:	019a      	lsls	r2, r3, #6
 800175e:	f897 3026 	ldrb.w	r3, [r7, #38]	@ 0x26
 8001762:	4413      	add	r3, r2
 8001764:	461a      	mov	r2, r3
 8001766:	4613      	mov	r3, r2
 8001768:	005b      	lsls	r3, r3, #1
 800176a:	4413      	add	r3, r2
 800176c:	687a      	ldr	r2, [r7, #4]
 800176e:	4413      	add	r3, r2
 8001770:	7afa      	ldrb	r2, [r7, #11]
 8001772:	701a      	strb	r2, [r3, #0]
            PIXEL(frame, x, y).G = g;
 8001774:	f897 3027 	ldrb.w	r3, [r7, #39]	@ 0x27
 8001778:	019a      	lsls	r2, r3, #6
 800177a:	f897 3026 	ldrb.w	r3, [r7, #38]	@ 0x26
 800177e:	4413      	add	r3, r2
 8001780:	461a      	mov	r2, r3
 8001782:	4613      	mov	r3, r2
 8001784:	005b      	lsls	r3, r3, #1
 8001786:	4413      	add	r3, r2
 8001788:	687a      	ldr	r2, [r7, #4]
 800178a:	4413      	add	r3, r2
 800178c:	7aba      	ldrb	r2, [r7, #10]
 800178e:	705a      	strb	r2, [r3, #1]
            PIXEL(frame, x, y).B = b;
 8001790:	f897 3027 	ldrb.w	r3, [r7, #39]	@ 0x27
 8001794:	019a      	lsls	r2, r3, #6
 8001796:	f897 3026 	ldrb.w	r3, [r7, #38]	@ 0x26
 800179a:	4413      	add	r3, r2
 800179c:	461a      	mov	r2, r3
 800179e:	4613      	mov	r3, r2
 80017a0:	005b      	lsls	r3, r3, #1
 80017a2:	4413      	add	r3, r2
 80017a4:	687a      	ldr	r2, [r7, #4]
 80017a6:	4413      	add	r3, r2
 80017a8:	7a7a      	ldrb	r2, [r7, #9]
 80017aa:	709a      	strb	r2, [r3, #2]
        for(uint8_t x = 0; x < WIDTH; x++) {
 80017ac:	f897 3026 	ldrb.w	r3, [r7, #38]	@ 0x26
 80017b0:	3301      	adds	r3, #1
 80017b2:	f887 3026 	strb.w	r3, [r7, #38]	@ 0x26
 80017b6:	f897 3026 	ldrb.w	r3, [r7, #38]	@ 0x26
 80017ba:	2b3f      	cmp	r3, #63	@ 0x3f
 80017bc:	f67f ae7e 	bls.w	80014bc <LED_plasmaEffect+0xb4>
    for(uint8_t y = 0; y < HEIGHT; y++) {
 80017c0:	f897 3027 	ldrb.w	r3, [r7, #39]	@ 0x27
 80017c4:	3301      	adds	r3, #1
 80017c6:	f887 3027 	strb.w	r3, [r7, #39]	@ 0x27
 80017ca:	f897 3027 	ldrb.w	r3, [r7, #39]	@ 0x27
 80017ce:	2b3f      	cmp	r3, #63	@ 0x3f
 80017d0:	f67f ae4a 	bls.w	8001468 <LED_plasmaEffect+0x60>
        }
    }
}
 80017d4:	bf00      	nop
 80017d6:	bf00      	nop
 80017d8:	3728      	adds	r7, #40	@ 0x28
 80017da:	46bd      	mov	sp, r7
 80017dc:	bdb0      	pop	{r4, r5, r7, pc}
 80017de:	bf00      	nop
 80017e0:	54442d18 	.word	0x54442d18
 80017e4:	400921fb 	.word	0x400921fb
 80017e8:	382d7365 	.word	0x382d7365
 80017ec:	4000c152 	.word	0x4000c152
 80017f0:	2000b4a0 	.word	0x2000b4a0
 80017f4:	3fe00000 	.word	0x3fe00000
 80017f8:	437f0000 	.word	0x437f0000
 80017fc:	43000000 	.word	0x43000000

08001800 <LED_Image>:

void LED_Image(RGB_t *frame, RGB_t *image_to_copy){
 8001800:	b480      	push	{r7}
 8001802:	b085      	sub	sp, #20
 8001804:	af00      	add	r7, sp, #0
 8001806:	6078      	str	r0, [r7, #4]
 8001808:	6039      	str	r1, [r7, #0]
    for (uint8_t row = 0; row <= WIDTH; row++) {
 800180a:	2300      	movs	r3, #0
 800180c:	73fb      	strb	r3, [r7, #15]
 800180e:	e021      	b.n	8001854 <LED_Image+0x54>
        for (uint8_t col = 0; col <= HEIGHT; col++) {
 8001810:	2300      	movs	r3, #0
 8001812:	73bb      	strb	r3, [r7, #14]
 8001814:	e018      	b.n	8001848 <LED_Image+0x48>
            // Calculamos la posicin en el frame
            uint32_t index = row * WIDTH + col;
 8001816:	7bfb      	ldrb	r3, [r7, #15]
 8001818:	019a      	lsls	r2, r3, #6
 800181a:	7bbb      	ldrb	r3, [r7, #14]
 800181c:	4413      	add	r3, r2
 800181e:	60bb      	str	r3, [r7, #8]
            // Establecemos el color en el frame
            frame[index] = image_to_copy[index];
 8001820:	68ba      	ldr	r2, [r7, #8]
 8001822:	4613      	mov	r3, r2
 8001824:	005b      	lsls	r3, r3, #1
 8001826:	4413      	add	r3, r2
 8001828:	683a      	ldr	r2, [r7, #0]
 800182a:	18d1      	adds	r1, r2, r3
 800182c:	68ba      	ldr	r2, [r7, #8]
 800182e:	4613      	mov	r3, r2
 8001830:	005b      	lsls	r3, r3, #1
 8001832:	4413      	add	r3, r2
 8001834:	687a      	ldr	r2, [r7, #4]
 8001836:	4413      	add	r3, r2
 8001838:	460a      	mov	r2, r1
 800183a:	8811      	ldrh	r1, [r2, #0]
 800183c:	7892      	ldrb	r2, [r2, #2]
 800183e:	8019      	strh	r1, [r3, #0]
 8001840:	709a      	strb	r2, [r3, #2]
        for (uint8_t col = 0; col <= HEIGHT; col++) {
 8001842:	7bbb      	ldrb	r3, [r7, #14]
 8001844:	3301      	adds	r3, #1
 8001846:	73bb      	strb	r3, [r7, #14]
 8001848:	7bbb      	ldrb	r3, [r7, #14]
 800184a:	2b40      	cmp	r3, #64	@ 0x40
 800184c:	d9e3      	bls.n	8001816 <LED_Image+0x16>
    for (uint8_t row = 0; row <= WIDTH; row++) {
 800184e:	7bfb      	ldrb	r3, [r7, #15]
 8001850:	3301      	adds	r3, #1
 8001852:	73fb      	strb	r3, [r7, #15]
 8001854:	7bfb      	ldrb	r3, [r7, #15]
 8001856:	2b40      	cmp	r3, #64	@ 0x40
 8001858:	d9da      	bls.n	8001810 <LED_Image+0x10>
        };
    };
}
 800185a:	bf00      	nop
 800185c:	bf00      	nop
 800185e:	3714      	adds	r7, #20
 8001860:	46bd      	mov	sp, r7
 8001862:	f85d 7b04 	ldr.w	r7, [sp], #4
 8001866:	4770      	bx	lr

08001868 <LED_rectangle>:

void LED_rectangle(RGB_t *frame, RGB_t color, uint8_t min_row, uint8_t max_row, uint8_t min_col, uint8_t max_col){
 8001868:	b480      	push	{r7}
 800186a:	b087      	sub	sp, #28
 800186c:	af00      	add	r7, sp, #0
 800186e:	60f8      	str	r0, [r7, #12]
 8001870:	60b9      	str	r1, [r7, #8]
 8001872:	4611      	mov	r1, r2
 8001874:	461a      	mov	r2, r3
 8001876:	460b      	mov	r3, r1
 8001878:	71fb      	strb	r3, [r7, #7]
 800187a:	4613      	mov	r3, r2
 800187c:	71bb      	strb	r3, [r7, #6]
 // Limitar los valores a los rangos del marco
    if (min_col >= WIDTH) min_col = WIDTH - 1;
 800187e:	f897 3020 	ldrb.w	r3, [r7, #32]
 8001882:	2b3f      	cmp	r3, #63	@ 0x3f
 8001884:	d902      	bls.n	800188c <LED_rectangle+0x24>
 8001886:	233f      	movs	r3, #63	@ 0x3f
 8001888:	f887 3020 	strb.w	r3, [r7, #32]
    if (max_col >= WIDTH) max_col = WIDTH - 1;
 800188c:	f897 3024 	ldrb.w	r3, [r7, #36]	@ 0x24
 8001890:	2b3f      	cmp	r3, #63	@ 0x3f
 8001892:	d902      	bls.n	800189a <LED_rectangle+0x32>
 8001894:	233f      	movs	r3, #63	@ 0x3f
 8001896:	f887 3024 	strb.w	r3, [r7, #36]	@ 0x24
    if (min_row >= HEIGHT) min_row = HEIGHT - 1;
 800189a:	79fb      	ldrb	r3, [r7, #7]
 800189c:	2b3f      	cmp	r3, #63	@ 0x3f
 800189e:	d901      	bls.n	80018a4 <LED_rectangle+0x3c>
 80018a0:	233f      	movs	r3, #63	@ 0x3f
 80018a2:	71fb      	strb	r3, [r7, #7]
    if (max_row >= HEIGHT) max_row = HEIGHT - 1;
 80018a4:	79bb      	ldrb	r3, [r7, #6]
 80018a6:	2b3f      	cmp	r3, #63	@ 0x3f
 80018a8:	d901      	bls.n	80018ae <LED_rectangle+0x46>
 80018aa:	233f      	movs	r3, #63	@ 0x3f
 80018ac:	71bb      	strb	r3, [r7, #6]

    for (uint8_t row = min_row; row <= max_row; row++) {
 80018ae:	79fb      	ldrb	r3, [r7, #7]
 80018b0:	75fb      	strb	r3, [r7, #23]
 80018b2:	e02b      	b.n	800190c <LED_rectangle+0xa4>
        for (uint8_t col = min_col; col <= max_col; col++) {
 80018b4:	f897 3020 	ldrb.w	r3, [r7, #32]
 80018b8:	75bb      	strb	r3, [r7, #22]
 80018ba:	e01f      	b.n	80018fc <LED_rectangle+0x94>
            // Calculamos la posicin en el frame
            uint32_t index = row * WIDTH + col;
 80018bc:	7dfb      	ldrb	r3, [r7, #23]
 80018be:	019a      	lsls	r2, r3, #6
 80018c0:	7dbb      	ldrb	r3, [r7, #22]
 80018c2:	4413      	add	r3, r2
 80018c4:	613b      	str	r3, [r7, #16]
            // Establecemos el color en el frame
            frame[index].R = color.R;
 80018c6:	693a      	ldr	r2, [r7, #16]
 80018c8:	4613      	mov	r3, r2
 80018ca:	005b      	lsls	r3, r3, #1
 80018cc:	4413      	add	r3, r2
 80018ce:	68fa      	ldr	r2, [r7, #12]
 80018d0:	4413      	add	r3, r2
 80018d2:	7a3a      	ldrb	r2, [r7, #8]
 80018d4:	701a      	strb	r2, [r3, #0]
            frame[index].G = color.G;
 80018d6:	693a      	ldr	r2, [r7, #16]
 80018d8:	4613      	mov	r3, r2
 80018da:	005b      	lsls	r3, r3, #1
 80018dc:	4413      	add	r3, r2
 80018de:	68fa      	ldr	r2, [r7, #12]
 80018e0:	4413      	add	r3, r2
 80018e2:	7a7a      	ldrb	r2, [r7, #9]
 80018e4:	705a      	strb	r2, [r3, #1]
            frame[index].B = color.B;
 80018e6:	693a      	ldr	r2, [r7, #16]
 80018e8:	4613      	mov	r3, r2
 80018ea:	005b      	lsls	r3, r3, #1
 80018ec:	4413      	add	r3, r2
 80018ee:	68fa      	ldr	r2, [r7, #12]
 80018f0:	4413      	add	r3, r2
 80018f2:	7aba      	ldrb	r2, [r7, #10]
 80018f4:	709a      	strb	r2, [r3, #2]
        for (uint8_t col = min_col; col <= max_col; col++) {
 80018f6:	7dbb      	ldrb	r3, [r7, #22]
 80018f8:	3301      	adds	r3, #1
 80018fa:	75bb      	strb	r3, [r7, #22]
 80018fc:	7dba      	ldrb	r2, [r7, #22]
 80018fe:	f897 3024 	ldrb.w	r3, [r7, #36]	@ 0x24
 8001902:	429a      	cmp	r2, r3
 8001904:	d9da      	bls.n	80018bc <LED_rectangle+0x54>
    for (uint8_t row = min_row; row <= max_row; row++) {
 8001906:	7dfb      	ldrb	r3, [r7, #23]
 8001908:	3301      	adds	r3, #1
 800190a:	75fb      	strb	r3, [r7, #23]
 800190c:	7dfa      	ldrb	r2, [r7, #23]
 800190e:	79bb      	ldrb	r3, [r7, #6]
 8001910:	429a      	cmp	r2, r3
 8001912:	d9cf      	bls.n	80018b4 <LED_rectangle+0x4c>
        };
    };
}
 8001914:	bf00      	nop
 8001916:	bf00      	nop
 8001918:	371c      	adds	r7, #28
 800191a:	46bd      	mov	sp, r7
 800191c:	f85d 7b04 	ldr.w	r7, [sp], #4
 8001920:	4770      	bx	lr
	...

08001924 <LED_analog_bar>:

void LED_analog_bar(RGB_t *frame, RGB_t color_1, RGB_t color_2, float percentage) {
 8001924:	b580      	push	{r7, lr}
 8001926:	b088      	sub	sp, #32
 8001928:	af02      	add	r7, sp, #8
 800192a:	60f8      	str	r0, [r7, #12]
 800192c:	60b9      	str	r1, [r7, #8]
 800192e:	607a      	str	r2, [r7, #4]
 8001930:	ed87 0a00 	vstr	s0, [r7]
    // Asegurarnos de que 'percentage' est en el rango 0.0 - 1.0
    if (percentage < 0.0f) percentage = 0.0f;
 8001934:	edd7 7a00 	vldr	s15, [r7]
 8001938:	eef5 7ac0 	vcmpe.f32	s15, #0.0
 800193c:	eef1 fa10 	vmrs	APSR_nzcv, fpscr
 8001940:	d502      	bpl.n	8001948 <LED_analog_bar+0x24>
 8001942:	f04f 0300 	mov.w	r3, #0
 8001946:	603b      	str	r3, [r7, #0]
    if (percentage > 1.0f) percentage = 1.0f;
 8001948:	edd7 7a00 	vldr	s15, [r7]
 800194c:	eeb7 7a00 	vmov.f32	s14, #112	@ 0x3f800000  1.0
 8001950:	eef4 7ac7 	vcmpe.f32	s15, s14
 8001954:	eef1 fa10 	vmrs	APSR_nzcv, fpscr
 8001958:	dd02      	ble.n	8001960 <LED_analog_bar+0x3c>
 800195a:	f04f 537e 	mov.w	r3, #1065353216	@ 0x3f800000
 800195e:	603b      	str	r3, [r7, #0]

    // Calcular la lnea de separacin
    uint32_t separation_line = (uint32_t)((1.0f - percentage) * HEIGHT);
 8001960:	eeb7 7a00 	vmov.f32	s14, #112	@ 0x3f800000  1.0
 8001964:	edd7 7a00 	vldr	s15, [r7]
 8001968:	ee77 7a67 	vsub.f32	s15, s14, s15
 800196c:	ed9f 7a15 	vldr	s14, [pc, #84]	@ 80019c4 <LED_analog_bar+0xa0>
 8001970:	ee67 7a87 	vmul.f32	s15, s15, s14
 8001974:	eefc 7ae7 	vcvt.u32.f32	s15, s15
 8001978:	ee17 3a90 	vmov	r3, s15
 800197c:	617b      	str	r3, [r7, #20]

    // Llenar con color_1 desde separation_line hasta la parte superior
    if (separation_line < HEIGHT) {
 800197e:	697b      	ldr	r3, [r7, #20]
 8001980:	2b3f      	cmp	r3, #63	@ 0x3f
 8001982:	d80a      	bhi.n	800199a <LED_analog_bar+0x76>
        LED_rectangle(frame, color_1, separation_line, HEIGHT - 1, 0, WIDTH - 1);
 8001984:	697b      	ldr	r3, [r7, #20]
 8001986:	b2da      	uxtb	r2, r3
 8001988:	233f      	movs	r3, #63	@ 0x3f
 800198a:	9301      	str	r3, [sp, #4]
 800198c:	2300      	movs	r3, #0
 800198e:	9300      	str	r3, [sp, #0]
 8001990:	233f      	movs	r3, #63	@ 0x3f
 8001992:	68b9      	ldr	r1, [r7, #8]
 8001994:	68f8      	ldr	r0, [r7, #12]
 8001996:	f7ff ff67 	bl	8001868 <LED_rectangle>
    }

    // Llenar con color_2 desde la parte inferior hasta separation_line
    if (separation_line > 0) {
 800199a:	697b      	ldr	r3, [r7, #20]
 800199c:	2b00      	cmp	r3, #0
 800199e:	d00c      	beq.n	80019ba <LED_analog_bar+0x96>
        LED_rectangle(frame, color_2, 0, separation_line - 1, 0, WIDTH - 1);
 80019a0:	697b      	ldr	r3, [r7, #20]
 80019a2:	b2db      	uxtb	r3, r3
 80019a4:	3b01      	subs	r3, #1
 80019a6:	b2db      	uxtb	r3, r3
 80019a8:	223f      	movs	r2, #63	@ 0x3f
 80019aa:	9201      	str	r2, [sp, #4]
 80019ac:	2200      	movs	r2, #0
 80019ae:	9200      	str	r2, [sp, #0]
 80019b0:	2200      	movs	r2, #0
 80019b2:	6879      	ldr	r1, [r7, #4]
 80019b4:	68f8      	ldr	r0, [r7, #12]
 80019b6:	f7ff ff57 	bl	8001868 <LED_rectangle>
    }
}
 80019ba:	bf00      	nop
 80019bc:	3718      	adds	r7, #24
 80019be:	46bd      	mov	sp, r7
 80019c0:	bd80      	pop	{r7, pc}
 80019c2:	bf00      	nop
 80019c4:	42800000 	.word	0x42800000

080019c8 <LED_Letter>:


void LED_Letter(RGB_t *frame, uint8_t *letter, uint8_t x_i, uint8_t y_i, RGB_t color, uint8_t circular) {
 80019c8:	b480      	push	{r7}
 80019ca:	b08b      	sub	sp, #44	@ 0x2c
 80019cc:	af00      	add	r7, sp, #0
 80019ce:	60f8      	str	r0, [r7, #12]
 80019d0:	60b9      	str	r1, [r7, #8]
 80019d2:	4611      	mov	r1, r2
 80019d4:	461a      	mov	r2, r3
 80019d6:	460b      	mov	r3, r1
 80019d8:	71fb      	strb	r3, [r7, #7]
 80019da:	4613      	mov	r3, r2
 80019dc:	71bb      	strb	r3, [r7, #6]
    // Iteramos por cada pxel de la letra
    for (uint8_t x = 0; x < TEXT_WIDTH; x++) {
 80019de:	2300      	movs	r3, #0
 80019e0:	f887 3027 	strb.w	r3, [r7, #39]	@ 0x27
 80019e4:	e070      	b.n	8001ac8 <LED_Letter+0x100>
        for (uint8_t y = 0; y < TEXT_HEIGHT; y++) {
 80019e6:	2300      	movs	r3, #0
 80019e8:	f887 3026 	strb.w	r3, [r7, #38]	@ 0x26
 80019ec:	e063      	b.n	8001ab6 <LED_Letter+0xee>
            int16_t frame_x = (circular)? (x+x_i)%WIDTH: x + x_i; // Posicin x en el marco
 80019ee:	f897 3034 	ldrb.w	r3, [r7, #52]	@ 0x34
 80019f2:	2b00      	cmp	r3, #0
 80019f4:	d009      	beq.n	8001a0a <LED_Letter+0x42>
 80019f6:	f897 2027 	ldrb.w	r2, [r7, #39]	@ 0x27
 80019fa:	79fb      	ldrb	r3, [r7, #7]
 80019fc:	4413      	add	r3, r2
 80019fe:	b2db      	uxtb	r3, r3
 8001a00:	b21b      	sxth	r3, r3
 8001a02:	f003 033f 	and.w	r3, r3, #63	@ 0x3f
 8001a06:	b21b      	sxth	r3, r3
 8001a08:	e007      	b.n	8001a1a <LED_Letter+0x52>
 8001a0a:	f897 3027 	ldrb.w	r3, [r7, #39]	@ 0x27
 8001a0e:	b29a      	uxth	r2, r3
 8001a10:	79fb      	ldrb	r3, [r7, #7]
 8001a12:	b29b      	uxth	r3, r3
 8001a14:	4413      	add	r3, r2
 8001a16:	b29b      	uxth	r3, r3
 8001a18:	b21b      	sxth	r3, r3
 8001a1a:	84bb      	strh	r3, [r7, #36]	@ 0x24
            int16_t frame_y = y + y_i; // Posicin y en el marco
 8001a1c:	f897 3026 	ldrb.w	r3, [r7, #38]	@ 0x26
 8001a20:	b29a      	uxth	r2, r3
 8001a22:	79bb      	ldrb	r3, [r7, #6]
 8001a24:	b29b      	uxth	r3, r3
 8001a26:	4413      	add	r3, r2
 8001a28:	b29b      	uxth	r3, r3
 8001a2a:	847b      	strh	r3, [r7, #34]	@ 0x22
            uint32_t letter_index = x + y * TEXT_WIDTH;
 8001a2c:	f897 1027 	ldrb.w	r1, [r7, #39]	@ 0x27
 8001a30:	f897 2026 	ldrb.w	r2, [r7, #38]	@ 0x26
 8001a34:	4613      	mov	r3, r2
 8001a36:	009b      	lsls	r3, r3, #2
 8001a38:	4413      	add	r3, r2
 8001a3a:	440b      	add	r3, r1
 8001a3c:	61fb      	str	r3, [r7, #28]

            // Si el pxel est dentro del marco, lo dibujamos
            if (frame_x >= 0 && frame_x < WIDTH && frame_y >= 0 && frame_y < HEIGHT) {
 8001a3e:	f9b7 3024 	ldrsh.w	r3, [r7, #36]	@ 0x24
 8001a42:	2b00      	cmp	r3, #0
 8001a44:	db32      	blt.n	8001aac <LED_Letter+0xe4>
 8001a46:	f9b7 3024 	ldrsh.w	r3, [r7, #36]	@ 0x24
 8001a4a:	2b3f      	cmp	r3, #63	@ 0x3f
 8001a4c:	dc2e      	bgt.n	8001aac <LED_Letter+0xe4>
 8001a4e:	f9b7 3022 	ldrsh.w	r3, [r7, #34]	@ 0x22
 8001a52:	2b00      	cmp	r3, #0
 8001a54:	db2a      	blt.n	8001aac <LED_Letter+0xe4>
 8001a56:	f9b7 3022 	ldrsh.w	r3, [r7, #34]	@ 0x22
 8001a5a:	2b3f      	cmp	r3, #63	@ 0x3f
 8001a5c:	dc26      	bgt.n	8001aac <LED_Letter+0xe4>
                uint32_t index = frame_x + frame_y * WIDTH;
 8001a5e:	f9b7 2024 	ldrsh.w	r2, [r7, #36]	@ 0x24
 8001a62:	f9b7 3022 	ldrsh.w	r3, [r7, #34]	@ 0x22
 8001a66:	019b      	lsls	r3, r3, #6
 8001a68:	4413      	add	r3, r2
 8001a6a:	61bb      	str	r3, [r7, #24]

                // Dibujamos solo si el pxel de la letra est activo
                if (letter[letter_index]) {
 8001a6c:	68ba      	ldr	r2, [r7, #8]
 8001a6e:	69fb      	ldr	r3, [r7, #28]
 8001a70:	4413      	add	r3, r2
 8001a72:	781b      	ldrb	r3, [r3, #0]
 8001a74:	2b00      	cmp	r3, #0
 8001a76:	d00d      	beq.n	8001a94 <LED_Letter+0xcc>
                    frame[index] = color; 
 8001a78:	69ba      	ldr	r2, [r7, #24]
 8001a7a:	4613      	mov	r3, r2
 8001a7c:	005b      	lsls	r3, r3, #1
 8001a7e:	4413      	add	r3, r2
 8001a80:	68fa      	ldr	r2, [r7, #12]
 8001a82:	4413      	add	r3, r2
 8001a84:	461a      	mov	r2, r3
 8001a86:	f107 0330 	add.w	r3, r7, #48	@ 0x30
 8001a8a:	8819      	ldrh	r1, [r3, #0]
 8001a8c:	789b      	ldrb	r3, [r3, #2]
 8001a8e:	8011      	strh	r1, [r2, #0]
 8001a90:	7093      	strb	r3, [r2, #2]
 8001a92:	e00b      	b.n	8001aac <LED_Letter+0xe4>
                } else {
                    frame[index] = (RGB_t){0x00, 0x00, 0x00};
 8001a94:	69ba      	ldr	r2, [r7, #24]
 8001a96:	4613      	mov	r3, r2
 8001a98:	005b      	lsls	r3, r3, #1
 8001a9a:	4413      	add	r3, r2
 8001a9c:	68fa      	ldr	r2, [r7, #12]
 8001a9e:	4413      	add	r3, r2
 8001aa0:	2200      	movs	r2, #0
 8001aa2:	701a      	strb	r2, [r3, #0]
 8001aa4:	2200      	movs	r2, #0
 8001aa6:	705a      	strb	r2, [r3, #1]
 8001aa8:	2200      	movs	r2, #0
 8001aaa:	709a      	strb	r2, [r3, #2]
        for (uint8_t y = 0; y < TEXT_HEIGHT; y++) {
 8001aac:	f897 3026 	ldrb.w	r3, [r7, #38]	@ 0x26
 8001ab0:	3301      	adds	r3, #1
 8001ab2:	f887 3026 	strb.w	r3, [r7, #38]	@ 0x26
 8001ab6:	f897 3026 	ldrb.w	r3, [r7, #38]	@ 0x26
 8001aba:	2b06      	cmp	r3, #6
 8001abc:	d997      	bls.n	80019ee <LED_Letter+0x26>
    for (uint8_t x = 0; x < TEXT_WIDTH; x++) {
 8001abe:	f897 3027 	ldrb.w	r3, [r7, #39]	@ 0x27
 8001ac2:	3301      	adds	r3, #1
 8001ac4:	f887 3027 	strb.w	r3, [r7, #39]	@ 0x27
 8001ac8:	f897 3027 	ldrb.w	r3, [r7, #39]	@ 0x27
 8001acc:	2b04      	cmp	r3, #4
 8001ace:	d98a      	bls.n	80019e6 <LED_Letter+0x1e>
                }
            }
        }
    }
}
 8001ad0:	bf00      	nop
 8001ad2:	bf00      	nop
 8001ad4:	372c      	adds	r7, #44	@ 0x2c
 8001ad6:	46bd      	mov	sp, r7
 8001ad8:	f85d 7b04 	ldr.w	r7, [sp], #4
 8001adc:	4770      	bx	lr

08001ade <LED_Text>:
    const char *str, 
    uint8_t x_i, 
    uint8_t y_i, 
    RGB_t color, 
    uint8_t enable_line_wrap
) {
 8001ade:	b590      	push	{r4, r7, lr}
 8001ae0:	b08b      	sub	sp, #44	@ 0x2c
 8001ae2:	af02      	add	r7, sp, #8
 8001ae4:	60f8      	str	r0, [r7, #12]
 8001ae6:	60b9      	str	r1, [r7, #8]
 8001ae8:	607a      	str	r2, [r7, #4]
 8001aea:	70fb      	strb	r3, [r7, #3]
    uint8_t cursor_x = x_i;
 8001aec:	78fb      	ldrb	r3, [r7, #3]
 8001aee:	77fb      	strb	r3, [r7, #31]
    uint8_t cursor_y = y_i;
 8001af0:	f897 3030 	ldrb.w	r3, [r7, #48]	@ 0x30
 8001af4:	77bb      	strb	r3, [r7, #30]

    // Iteramos sobre cada caracter en el string
    for (const char *c = str; *c != '\0'; c++) {
 8001af6:	687b      	ldr	r3, [r7, #4]
 8001af8:	61bb      	str	r3, [r7, #24]
 8001afa:	e03b      	b.n	8001b74 <LED_Text+0x96>
        // Ignoramos caracteres fuera del rango 'a' a 'z'
        if (*c < 'a' || *c > 'z') {
 8001afc:	69bb      	ldr	r3, [r7, #24]
 8001afe:	781b      	ldrb	r3, [r3, #0]
 8001b00:	2b60      	cmp	r3, #96	@ 0x60
 8001b02:	d933      	bls.n	8001b6c <LED_Text+0x8e>
 8001b04:	69bb      	ldr	r3, [r7, #24]
 8001b06:	781b      	ldrb	r3, [r3, #0]
 8001b08:	2b7a      	cmp	r3, #122	@ 0x7a
 8001b0a:	d82f      	bhi.n	8001b6c <LED_Text+0x8e>
            continue;
        }

        // Accedemos a la matriz correspondiente al carcter desde el font
        uint8_t *letter = font[*c - 'a'];
 8001b0c:	69bb      	ldr	r3, [r7, #24]
 8001b0e:	781b      	ldrb	r3, [r3, #0]
 8001b10:	f103 4380 	add.w	r3, r3, #1073741824	@ 0x40000000
 8001b14:	3b61      	subs	r3, #97	@ 0x61
 8001b16:	009b      	lsls	r3, r3, #2
 8001b18:	68ba      	ldr	r2, [r7, #8]
 8001b1a:	4413      	add	r3, r2
 8001b1c:	681b      	ldr	r3, [r3, #0]
 8001b1e:	617b      	str	r3, [r7, #20]

        // Dibujamos la letra en la posicin actual
        LED_Letter(frame, letter, cursor_x, cursor_y, color,0);
 8001b20:	7fb8      	ldrb	r0, [r7, #30]
 8001b22:	7ff9      	ldrb	r1, [r7, #31]
 8001b24:	2300      	movs	r3, #0
 8001b26:	9301      	str	r3, [sp, #4]
 8001b28:	466b      	mov	r3, sp
 8001b2a:	f107 0234 	add.w	r2, r7, #52	@ 0x34
 8001b2e:	6812      	ldr	r2, [r2, #0]
 8001b30:	4614      	mov	r4, r2
 8001b32:	801c      	strh	r4, [r3, #0]
 8001b34:	3302      	adds	r3, #2
 8001b36:	0c12      	lsrs	r2, r2, #16
 8001b38:	701a      	strb	r2, [r3, #0]
 8001b3a:	4603      	mov	r3, r0
 8001b3c:	460a      	mov	r2, r1
 8001b3e:	6979      	ldr	r1, [r7, #20]
 8001b40:	68f8      	ldr	r0, [r7, #12]
 8001b42:	f7ff ff41 	bl	80019c8 <LED_Letter>

        // Movemos el cursor para la prxima letra
        cursor_x += TEXT_WIDTH + 1; // Espacio entre letras
 8001b46:	7ffb      	ldrb	r3, [r7, #31]
 8001b48:	3306      	adds	r3, #6
 8001b4a:	77fb      	strb	r3, [r7, #31]

        // Si la letra excede el ancho del frame
        if (cursor_x + TEXT_WIDTH > WIDTH) {
 8001b4c:	7ffb      	ldrb	r3, [r7, #31]
 8001b4e:	2b3b      	cmp	r3, #59	@ 0x3b
 8001b50:	d908      	bls.n	8001b64 <LED_Text+0x86>
            if (enable_line_wrap) {
 8001b52:	f897 3038 	ldrb.w	r3, [r7, #56]	@ 0x38
 8001b56:	2b00      	cmp	r3, #0
 8001b58:	d011      	beq.n	8001b7e <LED_Text+0xa0>
                // Salto de lnea si est habilitado
                cursor_x = x_i;
 8001b5a:	78fb      	ldrb	r3, [r7, #3]
 8001b5c:	77fb      	strb	r3, [r7, #31]
                cursor_y += TEXT_HEIGHT + 1; // Espacio entre lneas
 8001b5e:	7fbb      	ldrb	r3, [r7, #30]
 8001b60:	3308      	adds	r3, #8
 8001b62:	77bb      	strb	r3, [r7, #30]
                break;
            }
        }

        // Salimos si excedemos los lmites verticales
        if (cursor_y + TEXT_HEIGHT > HEIGHT) {
 8001b64:	7fbb      	ldrb	r3, [r7, #30]
 8001b66:	2b39      	cmp	r3, #57	@ 0x39
 8001b68:	d80b      	bhi.n	8001b82 <LED_Text+0xa4>
 8001b6a:	e000      	b.n	8001b6e <LED_Text+0x90>
            continue;
 8001b6c:	bf00      	nop
    for (const char *c = str; *c != '\0'; c++) {
 8001b6e:	69bb      	ldr	r3, [r7, #24]
 8001b70:	3301      	adds	r3, #1
 8001b72:	61bb      	str	r3, [r7, #24]
 8001b74:	69bb      	ldr	r3, [r7, #24]
 8001b76:	781b      	ldrb	r3, [r3, #0]
 8001b78:	2b00      	cmp	r3, #0
 8001b7a:	d1bf      	bne.n	8001afc <LED_Text+0x1e>
            break;
        }
    }
}
 8001b7c:	e002      	b.n	8001b84 <LED_Text+0xa6>
                break;
 8001b7e:	bf00      	nop
 8001b80:	e000      	b.n	8001b84 <LED_Text+0xa6>
            break;
 8001b82:	bf00      	nop
}
 8001b84:	bf00      	nop
 8001b86:	3724      	adds	r7, #36	@ 0x24
 8001b88:	46bd      	mov	sp, r7
 8001b8a:	bd90      	pop	{r4, r7, pc}

08001b8c <LED_SliddingText>:
    uint8_t x_i, 
    uint8_t y_i, 
    RGB_t color, 
    uint8_t enable_line_wrap,
    uint8_t direction
) {
 8001b8c:	b590      	push	{r4, r7, lr}
 8001b8e:	b08d      	sub	sp, #52	@ 0x34
 8001b90:	af02      	add	r7, sp, #8
 8001b92:	60f8      	str	r0, [r7, #12]
 8001b94:	60b9      	str	r1, [r7, #8]
 8001b96:	607a      	str	r2, [r7, #4]
 8001b98:	70fb      	strb	r3, [r7, #3]
    static uint32_t contador_frames =0;
    uint32_t frames_por_desplazamiento = 6;
 8001b9a:	2306      	movs	r3, #6
 8001b9c:	61fb      	str	r3, [r7, #28]
    uint8_t desplazamiento = (uint8_t)(contador_frames/frames_por_desplazamiento)*direction;
 8001b9e:	4b39      	ldr	r3, [pc, #228]	@ (8001c84 <LED_SliddingText+0xf8>)
 8001ba0:	681a      	ldr	r2, [r3, #0]
 8001ba2:	69fb      	ldr	r3, [r7, #28]
 8001ba4:	fbb2 f3f3 	udiv	r3, r2, r3
 8001ba8:	b2db      	uxtb	r3, r3
 8001baa:	f897 2044 	ldrb.w	r2, [r7, #68]	@ 0x44
 8001bae:	fb12 f303 	smulbb	r3, r2, r3
 8001bb2:	76fb      	strb	r3, [r7, #27]
    
    uint8_t cursor_x = x_i;
 8001bb4:	78fb      	ldrb	r3, [r7, #3]
 8001bb6:	f887 3027 	strb.w	r3, [r7, #39]	@ 0x27
    uint8_t cursor_y = y_i;
 8001bba:	f897 3038 	ldrb.w	r3, [r7, #56]	@ 0x38
 8001bbe:	f887 3026 	strb.w	r3, [r7, #38]	@ 0x26
    uint8_t cursor_actual;

    // Iteramos sobre cada caracter en el string
    for (const char *c = str; *c != '\0'; c++) {
 8001bc2:	687b      	ldr	r3, [r7, #4]
 8001bc4:	623b      	str	r3, [r7, #32]
 8001bc6:	e04b      	b.n	8001c60 <LED_SliddingText+0xd4>
        // Ignoramos caracteres fuera del rango 'a' a 'z'
        if (*c < 'a' || *c > 'z') {
 8001bc8:	6a3b      	ldr	r3, [r7, #32]
 8001bca:	781b      	ldrb	r3, [r3, #0]
 8001bcc:	2b60      	cmp	r3, #96	@ 0x60
 8001bce:	d943      	bls.n	8001c58 <LED_SliddingText+0xcc>
 8001bd0:	6a3b      	ldr	r3, [r7, #32]
 8001bd2:	781b      	ldrb	r3, [r3, #0]
 8001bd4:	2b7a      	cmp	r3, #122	@ 0x7a
 8001bd6:	d83f      	bhi.n	8001c58 <LED_SliddingText+0xcc>
            continue;
        }

        // Accedemos a la matriz correspondiente al carcter desde el font
        uint8_t *letter = font[*c - 'a'];
 8001bd8:	6a3b      	ldr	r3, [r7, #32]
 8001bda:	781b      	ldrb	r3, [r3, #0]
 8001bdc:	f103 4380 	add.w	r3, r3, #1073741824	@ 0x40000000
 8001be0:	3b61      	subs	r3, #97	@ 0x61
 8001be2:	009b      	lsls	r3, r3, #2
 8001be4:	68ba      	ldr	r2, [r7, #8]
 8001be6:	4413      	add	r3, r2
 8001be8:	681b      	ldr	r3, [r3, #0]
 8001bea:	617b      	str	r3, [r7, #20]
        
        // Si el cursor sobresale hay que traerlo devuelta
        cursor_actual = (cursor_x+desplazamiento)%WIDTH;
 8001bec:	f897 2027 	ldrb.w	r2, [r7, #39]	@ 0x27
 8001bf0:	7efb      	ldrb	r3, [r7, #27]
 8001bf2:	4413      	add	r3, r2
 8001bf4:	b2db      	uxtb	r3, r3
 8001bf6:	f003 033f 	and.w	r3, r3, #63	@ 0x3f
 8001bfa:	74fb      	strb	r3, [r7, #19]
        // Dibujamos la letra en la posicin actual
        LED_Letter(frame, letter, cursor_actual, cursor_y, color,1);
 8001bfc:	f897 0026 	ldrb.w	r0, [r7, #38]	@ 0x26
 8001c00:	7cf9      	ldrb	r1, [r7, #19]
 8001c02:	2301      	movs	r3, #1
 8001c04:	9301      	str	r3, [sp, #4]
 8001c06:	466b      	mov	r3, sp
 8001c08:	f107 023c 	add.w	r2, r7, #60	@ 0x3c
 8001c0c:	6812      	ldr	r2, [r2, #0]
 8001c0e:	4614      	mov	r4, r2
 8001c10:	801c      	strh	r4, [r3, #0]
 8001c12:	3302      	adds	r3, #2
 8001c14:	0c12      	lsrs	r2, r2, #16
 8001c16:	701a      	strb	r2, [r3, #0]
 8001c18:	4603      	mov	r3, r0
 8001c1a:	460a      	mov	r2, r1
 8001c1c:	6979      	ldr	r1, [r7, #20]
 8001c1e:	68f8      	ldr	r0, [r7, #12]
 8001c20:	f7ff fed2 	bl	80019c8 <LED_Letter>

        // Movemos el cursor para la prxima letra
        cursor_x += TEXT_WIDTH + 1; // Espacio entre letras
 8001c24:	f897 3027 	ldrb.w	r3, [r7, #39]	@ 0x27
 8001c28:	3306      	adds	r3, #6
 8001c2a:	f887 3027 	strb.w	r3, [r7, #39]	@ 0x27

        // Si la letra excede el ancho del frame
        if (cursor_x + TEXT_WIDTH > WIDTH) {
 8001c2e:	f897 3027 	ldrb.w	r3, [r7, #39]	@ 0x27
 8001c32:	2b3b      	cmp	r3, #59	@ 0x3b
 8001c34:	d90b      	bls.n	8001c4e <LED_SliddingText+0xc2>
            if (enable_line_wrap) {
 8001c36:	f897 3040 	ldrb.w	r3, [r7, #64]	@ 0x40
 8001c3a:	2b00      	cmp	r3, #0
 8001c3c:	d015      	beq.n	8001c6a <LED_SliddingText+0xde>
                // Salto de lnea si est habilitado
                cursor_x = x_i;
 8001c3e:	78fb      	ldrb	r3, [r7, #3]
 8001c40:	f887 3027 	strb.w	r3, [r7, #39]	@ 0x27
                cursor_y += TEXT_HEIGHT + 1; // Espacio entre lneas
 8001c44:	f897 3026 	ldrb.w	r3, [r7, #38]	@ 0x26
 8001c48:	3308      	adds	r3, #8
 8001c4a:	f887 3026 	strb.w	r3, [r7, #38]	@ 0x26
                break;
            }
        }

        // Salimos si excedemos los lmites verticales
        if (cursor_y + TEXT_HEIGHT > HEIGHT) {
 8001c4e:	f897 3026 	ldrb.w	r3, [r7, #38]	@ 0x26
 8001c52:	2b39      	cmp	r3, #57	@ 0x39
 8001c54:	d80b      	bhi.n	8001c6e <LED_SliddingText+0xe2>
 8001c56:	e000      	b.n	8001c5a <LED_SliddingText+0xce>
            continue;
 8001c58:	bf00      	nop
    for (const char *c = str; *c != '\0'; c++) {
 8001c5a:	6a3b      	ldr	r3, [r7, #32]
 8001c5c:	3301      	adds	r3, #1
 8001c5e:	623b      	str	r3, [r7, #32]
 8001c60:	6a3b      	ldr	r3, [r7, #32]
 8001c62:	781b      	ldrb	r3, [r3, #0]
 8001c64:	2b00      	cmp	r3, #0
 8001c66:	d1af      	bne.n	8001bc8 <LED_SliddingText+0x3c>
 8001c68:	e002      	b.n	8001c70 <LED_SliddingText+0xe4>
                break;
 8001c6a:	bf00      	nop
 8001c6c:	e000      	b.n	8001c70 <LED_SliddingText+0xe4>
            break;
 8001c6e:	bf00      	nop
        }
    }
    contador_frames++;
 8001c70:	4b04      	ldr	r3, [pc, #16]	@ (8001c84 <LED_SliddingText+0xf8>)
 8001c72:	681b      	ldr	r3, [r3, #0]
 8001c74:	3301      	adds	r3, #1
 8001c76:	4a03      	ldr	r2, [pc, #12]	@ (8001c84 <LED_SliddingText+0xf8>)
 8001c78:	6013      	str	r3, [r2, #0]
}
 8001c7a:	bf00      	nop
 8001c7c:	372c      	adds	r7, #44	@ 0x2c
 8001c7e:	46bd      	mov	sp, r7
 8001c80:	bd90      	pop	{r4, r7, pc}
 8001c82:	bf00      	nop
 8001c84:	2000b4a4 	.word	0x2000b4a4

08001c88 <LED_FallingSand>:


void LED_FallingSand(RGB_t *frame) {
 8001c88:	b580      	push	{r7, lr}
 8001c8a:	f5ad 4d80 	sub.w	sp, sp, #16384	@ 0x4000
 8001c8e:	b090      	sub	sp, #64	@ 0x40
 8001c90:	af00      	add	r7, sp, #0
 8001c92:	f107 0340 	add.w	r3, r7, #64	@ 0x40
 8001c96:	f843 0c3c 	str.w	r0, [r3, #-60]
    RGB_t *frame_auxiliar = (RGB_t *)malloc(WIDTH * HEIGHT * sizeof(RGB_t));
 8001c9a:	f44f 5040 	mov.w	r0, #12288	@ 0x3000
 8001c9e:	f002 f90f 	bl	8003ec0 <malloc>
 8001ca2:	4603      	mov	r3, r0
 8001ca4:	f507 4280 	add.w	r2, r7, #16384	@ 0x4000
 8001ca8:	f102 0228 	add.w	r2, r2, #40	@ 0x28
 8001cac:	6013      	str	r3, [r2, #0]

    if (frame_auxiliar == NULL) {
 8001cae:	f507 4380 	add.w	r3, r7, #16384	@ 0x4000
 8001cb2:	f103 0328 	add.w	r3, r3, #40	@ 0x28
 8001cb6:	681b      	ldr	r3, [r3, #0]
 8001cb8:	2b00      	cmp	r3, #0
 8001cba:	f000 835b 	beq.w	8002374 <LED_FallingSand+0x6ec>
        return;
    }

    memcpy(frame_auxiliar, frame, WIDTH * HEIGHT * sizeof(RGB_t));
 8001cbe:	f107 0340 	add.w	r3, r7, #64	@ 0x40
 8001cc2:	f44f 5240 	mov.w	r2, #12288	@ 0x3000
 8001cc6:	f853 1c3c 	ldr.w	r1, [r3, #-60]
 8001cca:	f507 4380 	add.w	r3, r7, #16384	@ 0x4000
 8001cce:	f103 0328 	add.w	r3, r3, #40	@ 0x28
 8001cd2:	6818      	ldr	r0, [r3, #0]
 8001cd4:	f002 f9f6 	bl	80040c4 <memcpy>

    uint16_t estado_actual[WIDTH * HEIGHT];
    int16_t siguiente_estado[WIDTH * HEIGHT];
    uint32_t index;

    memset(estado_actual, 0, sizeof(estado_actual));
 8001cd8:	f507 5301 	add.w	r3, r7, #8256	@ 0x2040
 8001cdc:	3b34      	subs	r3, #52	@ 0x34
 8001cde:	f44f 5200 	mov.w	r2, #8192	@ 0x2000
 8001ce2:	2100      	movs	r1, #0
 8001ce4:	4618      	mov	r0, r3
 8001ce6:	f002 f9a9 	bl	800403c <memset>
    memset(siguiente_estado, -1, sizeof(siguiente_estado));
 8001cea:	f107 0340 	add.w	r3, r7, #64	@ 0x40
 8001cee:	3b34      	subs	r3, #52	@ 0x34
 8001cf0:	f44f 5200 	mov.w	r2, #8192	@ 0x2000
 8001cf4:	f04f 31ff 	mov.w	r1, #4294967295	@ 0xffffffff
 8001cf8:	4618      	mov	r0, r3
 8001cfa:	f002 f99f 	bl	800403c <memset>

    for (uint8_t row = 0; row < HEIGHT; row++) {
 8001cfe:	2300      	movs	r3, #0
 8001d00:	f507 4280 	add.w	r2, r7, #16384	@ 0x4000
 8001d04:	f102 023f 	add.w	r2, r2, #63	@ 0x3f
 8001d08:	7013      	strb	r3, [r2, #0]
 8001d0a:	e074      	b.n	8001df6 <LED_FallingSand+0x16e>
        for (uint8_t col = 0; col < WIDTH; col++) {
 8001d0c:	2300      	movs	r3, #0
 8001d0e:	f507 4280 	add.w	r2, r7, #16384	@ 0x4000
 8001d12:	f102 023e 	add.w	r2, r2, #62	@ 0x3e
 8001d16:	7013      	strb	r3, [r2, #0]
 8001d18:	e05b      	b.n	8001dd2 <LED_FallingSand+0x14a>
            index = row * WIDTH + col;
 8001d1a:	f507 4380 	add.w	r3, r7, #16384	@ 0x4000
 8001d1e:	f103 033f 	add.w	r3, r3, #63	@ 0x3f
 8001d22:	781b      	ldrb	r3, [r3, #0]
 8001d24:	019a      	lsls	r2, r3, #6
 8001d26:	f507 4380 	add.w	r3, r7, #16384	@ 0x4000
 8001d2a:	f103 033e 	add.w	r3, r3, #62	@ 0x3e
 8001d2e:	781b      	ldrb	r3, [r3, #0]
 8001d30:	4413      	add	r3, r2
 8001d32:	f507 4280 	add.w	r2, r7, #16384	@ 0x4000
 8001d36:	f102 0224 	add.w	r2, r2, #36	@ 0x24
 8001d3a:	6013      	str	r3, [r2, #0]
            estado_actual[index] = (frame[index].R || frame[index].G || frame[index].B) ? 1 : 0;
 8001d3c:	f507 4380 	add.w	r3, r7, #16384	@ 0x4000
 8001d40:	f103 0324 	add.w	r3, r3, #36	@ 0x24
 8001d44:	681a      	ldr	r2, [r3, #0]
 8001d46:	4613      	mov	r3, r2
 8001d48:	005b      	lsls	r3, r3, #1
 8001d4a:	4413      	add	r3, r2
 8001d4c:	f107 0240 	add.w	r2, r7, #64	@ 0x40
 8001d50:	f852 2c3c 	ldr.w	r2, [r2, #-60]
 8001d54:	4413      	add	r3, r2
 8001d56:	781b      	ldrb	r3, [r3, #0]
 8001d58:	2b00      	cmp	r3, #0
 8001d5a:	d11f      	bne.n	8001d9c <LED_FallingSand+0x114>
 8001d5c:	f507 4380 	add.w	r3, r7, #16384	@ 0x4000
 8001d60:	f103 0324 	add.w	r3, r3, #36	@ 0x24
 8001d64:	681a      	ldr	r2, [r3, #0]
 8001d66:	4613      	mov	r3, r2
 8001d68:	005b      	lsls	r3, r3, #1
 8001d6a:	4413      	add	r3, r2
 8001d6c:	f107 0240 	add.w	r2, r7, #64	@ 0x40
 8001d70:	f852 2c3c 	ldr.w	r2, [r2, #-60]
 8001d74:	4413      	add	r3, r2
 8001d76:	785b      	ldrb	r3, [r3, #1]
 8001d78:	2b00      	cmp	r3, #0
 8001d7a:	d10f      	bne.n	8001d9c <LED_FallingSand+0x114>
 8001d7c:	f507 4380 	add.w	r3, r7, #16384	@ 0x4000
 8001d80:	f103 0324 	add.w	r3, r3, #36	@ 0x24
 8001d84:	681a      	ldr	r2, [r3, #0]
 8001d86:	4613      	mov	r3, r2
 8001d88:	005b      	lsls	r3, r3, #1
 8001d8a:	4413      	add	r3, r2
 8001d8c:	f107 0240 	add.w	r2, r7, #64	@ 0x40
 8001d90:	f852 2c3c 	ldr.w	r2, [r2, #-60]
 8001d94:	4413      	add	r3, r2
 8001d96:	789b      	ldrb	r3, [r3, #2]
 8001d98:	2b00      	cmp	r3, #0
 8001d9a:	d001      	beq.n	8001da0 <LED_FallingSand+0x118>
 8001d9c:	2301      	movs	r3, #1
 8001d9e:	e000      	b.n	8001da2 <LED_FallingSand+0x11a>
 8001da0:	2300      	movs	r3, #0
 8001da2:	b29a      	uxth	r2, r3
 8001da4:	f507 5301 	add.w	r3, r7, #8256	@ 0x2040
 8001da8:	4619      	mov	r1, r3
 8001daa:	f507 4380 	add.w	r3, r7, #16384	@ 0x4000
 8001dae:	f103 0324 	add.w	r3, r3, #36	@ 0x24
 8001db2:	681b      	ldr	r3, [r3, #0]
 8001db4:	005b      	lsls	r3, r3, #1
 8001db6:	440b      	add	r3, r1
 8001db8:	f823 2c34 	strh.w	r2, [r3, #-52]
        for (uint8_t col = 0; col < WIDTH; col++) {
 8001dbc:	f507 4380 	add.w	r3, r7, #16384	@ 0x4000
 8001dc0:	f103 033e 	add.w	r3, r3, #62	@ 0x3e
 8001dc4:	781b      	ldrb	r3, [r3, #0]
 8001dc6:	3301      	adds	r3, #1
 8001dc8:	f507 4280 	add.w	r2, r7, #16384	@ 0x4000
 8001dcc:	f102 023e 	add.w	r2, r2, #62	@ 0x3e
 8001dd0:	7013      	strb	r3, [r2, #0]
 8001dd2:	f507 4380 	add.w	r3, r7, #16384	@ 0x4000
 8001dd6:	f103 033e 	add.w	r3, r3, #62	@ 0x3e
 8001dda:	781b      	ldrb	r3, [r3, #0]
 8001ddc:	2b3f      	cmp	r3, #63	@ 0x3f
 8001dde:	d99c      	bls.n	8001d1a <LED_FallingSand+0x92>
    for (uint8_t row = 0; row < HEIGHT; row++) {
 8001de0:	f507 4380 	add.w	r3, r7, #16384	@ 0x4000
 8001de4:	f103 033f 	add.w	r3, r3, #63	@ 0x3f
 8001de8:	781b      	ldrb	r3, [r3, #0]
 8001dea:	3301      	adds	r3, #1
 8001dec:	f507 4280 	add.w	r2, r7, #16384	@ 0x4000
 8001df0:	f102 023f 	add.w	r2, r2, #63	@ 0x3f
 8001df4:	7013      	strb	r3, [r2, #0]
 8001df6:	f507 4380 	add.w	r3, r7, #16384	@ 0x4000
 8001dfa:	f103 033f 	add.w	r3, r3, #63	@ 0x3f
 8001dfe:	781b      	ldrb	r3, [r3, #0]
 8001e00:	2b3f      	cmp	r3, #63	@ 0x3f
 8001e02:	d983      	bls.n	8001d0c <LED_FallingSand+0x84>
        }
    }
    // Inicializar las matrices de estado
    for (uint8_t row = 0; row < HEIGHT; row++) {
 8001e04:	2300      	movs	r3, #0
 8001e06:	f507 4280 	add.w	r2, r7, #16384	@ 0x4000
 8001e0a:	f102 023d 	add.w	r2, r2, #61	@ 0x3d
 8001e0e:	7013      	strb	r3, [r2, #0]
 8001e10:	e08d      	b.n	8001f2e <LED_FallingSand+0x2a6>
        for (uint8_t col = 0; col < WIDTH; col++) {
 8001e12:	2300      	movs	r3, #0
 8001e14:	f507 4280 	add.w	r2, r7, #16384	@ 0x4000
 8001e18:	f102 023c 	add.w	r2, r2, #60	@ 0x3c
 8001e1c:	7013      	strb	r3, [r2, #0]
 8001e1e:	e074      	b.n	8001f0a <LED_FallingSand+0x282>
            index = row * WIDTH + col;
 8001e20:	f507 4380 	add.w	r3, r7, #16384	@ 0x4000
 8001e24:	f103 033d 	add.w	r3, r3, #61	@ 0x3d
 8001e28:	781b      	ldrb	r3, [r3, #0]
 8001e2a:	019a      	lsls	r2, r3, #6
 8001e2c:	f507 4380 	add.w	r3, r7, #16384	@ 0x4000
 8001e30:	f103 033c 	add.w	r3, r3, #60	@ 0x3c
 8001e34:	781b      	ldrb	r3, [r3, #0]
 8001e36:	4413      	add	r3, r2
 8001e38:	f507 4280 	add.w	r2, r7, #16384	@ 0x4000
 8001e3c:	f102 0224 	add.w	r2, r2, #36	@ 0x24
 8001e40:	6013      	str	r3, [r2, #0]
            if (frame[index].R == 0 && frame[index].G == 0 && frame[index].B == 0) {
 8001e42:	f507 4380 	add.w	r3, r7, #16384	@ 0x4000
 8001e46:	f103 0324 	add.w	r3, r3, #36	@ 0x24
 8001e4a:	681a      	ldr	r2, [r3, #0]
 8001e4c:	4613      	mov	r3, r2
 8001e4e:	005b      	lsls	r3, r3, #1
 8001e50:	4413      	add	r3, r2
 8001e52:	f107 0240 	add.w	r2, r7, #64	@ 0x40
 8001e56:	f852 2c3c 	ldr.w	r2, [r2, #-60]
 8001e5a:	4413      	add	r3, r2
 8001e5c:	781b      	ldrb	r3, [r3, #0]
 8001e5e:	2b00      	cmp	r3, #0
 8001e60:	d12d      	bne.n	8001ebe <LED_FallingSand+0x236>
 8001e62:	f507 4380 	add.w	r3, r7, #16384	@ 0x4000
 8001e66:	f103 0324 	add.w	r3, r3, #36	@ 0x24
 8001e6a:	681a      	ldr	r2, [r3, #0]
 8001e6c:	4613      	mov	r3, r2
 8001e6e:	005b      	lsls	r3, r3, #1
 8001e70:	4413      	add	r3, r2
 8001e72:	f107 0240 	add.w	r2, r7, #64	@ 0x40
 8001e76:	f852 2c3c 	ldr.w	r2, [r2, #-60]
 8001e7a:	4413      	add	r3, r2
 8001e7c:	785b      	ldrb	r3, [r3, #1]
 8001e7e:	2b00      	cmp	r3, #0
 8001e80:	d11d      	bne.n	8001ebe <LED_FallingSand+0x236>
 8001e82:	f507 4380 	add.w	r3, r7, #16384	@ 0x4000
 8001e86:	f103 0324 	add.w	r3, r3, #36	@ 0x24
 8001e8a:	681a      	ldr	r2, [r3, #0]
 8001e8c:	4613      	mov	r3, r2
 8001e8e:	005b      	lsls	r3, r3, #1
 8001e90:	4413      	add	r3, r2
 8001e92:	f107 0240 	add.w	r2, r7, #64	@ 0x40
 8001e96:	f852 2c3c 	ldr.w	r2, [r2, #-60]
 8001e9a:	4413      	add	r3, r2
 8001e9c:	789b      	ldrb	r3, [r3, #2]
 8001e9e:	2b00      	cmp	r3, #0
 8001ea0:	d10d      	bne.n	8001ebe <LED_FallingSand+0x236>
                estado_actual[index] = 0;  // No hay grano en esta posicin
 8001ea2:	f507 5301 	add.w	r3, r7, #8256	@ 0x2040
 8001ea6:	461a      	mov	r2, r3
 8001ea8:	f507 4380 	add.w	r3, r7, #16384	@ 0x4000
 8001eac:	f103 0324 	add.w	r3, r3, #36	@ 0x24
 8001eb0:	681b      	ldr	r3, [r3, #0]
 8001eb2:	005b      	lsls	r3, r3, #1
 8001eb4:	4413      	add	r3, r2
 8001eb6:	2200      	movs	r2, #0
 8001eb8:	f823 2c34 	strh.w	r2, [r3, #-52]
 8001ebc:	e00c      	b.n	8001ed8 <LED_FallingSand+0x250>
            } else {
                estado_actual[index] = 1;  // Hay un grano en esta posicin
 8001ebe:	f507 5301 	add.w	r3, r7, #8256	@ 0x2040
 8001ec2:	461a      	mov	r2, r3
 8001ec4:	f507 4380 	add.w	r3, r7, #16384	@ 0x4000
 8001ec8:	f103 0324 	add.w	r3, r3, #36	@ 0x24
 8001ecc:	681b      	ldr	r3, [r3, #0]
 8001ece:	005b      	lsls	r3, r3, #1
 8001ed0:	4413      	add	r3, r2
 8001ed2:	2201      	movs	r2, #1
 8001ed4:	f823 2c34 	strh.w	r2, [r3, #-52]
            }
            siguiente_estado[index] = -1;  // Inicializamos con -1, indicando que el grano no se ha movido
 8001ed8:	f107 0340 	add.w	r3, r7, #64	@ 0x40
 8001edc:	461a      	mov	r2, r3
 8001ede:	f507 4380 	add.w	r3, r7, #16384	@ 0x4000
 8001ee2:	f103 0324 	add.w	r3, r3, #36	@ 0x24
 8001ee6:	681b      	ldr	r3, [r3, #0]
 8001ee8:	005b      	lsls	r3, r3, #1
 8001eea:	4413      	add	r3, r2
 8001eec:	f64f 72ff 	movw	r2, #65535	@ 0xffff
 8001ef0:	f823 2c34 	strh.w	r2, [r3, #-52]
        for (uint8_t col = 0; col < WIDTH; col++) {
 8001ef4:	f507 4380 	add.w	r3, r7, #16384	@ 0x4000
 8001ef8:	f103 033c 	add.w	r3, r3, #60	@ 0x3c
 8001efc:	781b      	ldrb	r3, [r3, #0]
 8001efe:	3301      	adds	r3, #1
 8001f00:	f507 4280 	add.w	r2, r7, #16384	@ 0x4000
 8001f04:	f102 023c 	add.w	r2, r2, #60	@ 0x3c
 8001f08:	7013      	strb	r3, [r2, #0]
 8001f0a:	f507 4380 	add.w	r3, r7, #16384	@ 0x4000
 8001f0e:	f103 033c 	add.w	r3, r3, #60	@ 0x3c
 8001f12:	781b      	ldrb	r3, [r3, #0]
 8001f14:	2b3f      	cmp	r3, #63	@ 0x3f
 8001f16:	d983      	bls.n	8001e20 <LED_FallingSand+0x198>
    for (uint8_t row = 0; row < HEIGHT; row++) {
 8001f18:	f507 4380 	add.w	r3, r7, #16384	@ 0x4000
 8001f1c:	f103 033d 	add.w	r3, r3, #61	@ 0x3d
 8001f20:	781b      	ldrb	r3, [r3, #0]
 8001f22:	3301      	adds	r3, #1
 8001f24:	f507 4280 	add.w	r2, r7, #16384	@ 0x4000
 8001f28:	f102 023d 	add.w	r2, r2, #61	@ 0x3d
 8001f2c:	7013      	strb	r3, [r2, #0]
 8001f2e:	f507 4380 	add.w	r3, r7, #16384	@ 0x4000
 8001f32:	f103 033d 	add.w	r3, r3, #61	@ 0x3d
 8001f36:	781b      	ldrb	r3, [r3, #0]
 8001f38:	2b3f      	cmp	r3, #63	@ 0x3f
 8001f3a:	f67f af6a 	bls.w	8001e12 <LED_FallingSand+0x18a>
        }
    }

    // Realiza la simulacin
// Inicializar la ltima fila en `siguiente_estado`
for (int col = 0; col < WIDTH; col++) {
 8001f3e:	2300      	movs	r3, #0
 8001f40:	f507 4280 	add.w	r2, r7, #16384	@ 0x4000
 8001f44:	f102 0238 	add.w	r2, r2, #56	@ 0x38
 8001f48:	6013      	str	r3, [r2, #0]
 8001f4a:	e036      	b.n	8001fba <LED_FallingSand+0x332>
    int index = (HEIGHT - 1) * WIDTH + col;
 8001f4c:	f507 4380 	add.w	r3, r7, #16384	@ 0x4000
 8001f50:	f103 0338 	add.w	r3, r3, #56	@ 0x38
 8001f54:	681b      	ldr	r3, [r3, #0]
 8001f56:	f503 637c 	add.w	r3, r3, #4032	@ 0xfc0
 8001f5a:	f507 4280 	add.w	r2, r7, #16384	@ 0x4000
 8001f5e:	f102 020c 	add.w	r2, r2, #12
 8001f62:	6013      	str	r3, [r2, #0]
    if (estado_actual[index] == 1) {
 8001f64:	f507 5301 	add.w	r3, r7, #8256	@ 0x2040
 8001f68:	461a      	mov	r2, r3
 8001f6a:	f507 4380 	add.w	r3, r7, #16384	@ 0x4000
 8001f6e:	f103 030c 	add.w	r3, r3, #12
 8001f72:	681b      	ldr	r3, [r3, #0]
 8001f74:	005b      	lsls	r3, r3, #1
 8001f76:	4413      	add	r3, r2
 8001f78:	f833 3c34 	ldrh.w	r3, [r3, #-52]
 8001f7c:	2b01      	cmp	r3, #1
 8001f7e:	d111      	bne.n	8001fa4 <LED_FallingSand+0x31c>
        siguiente_estado[index] = index; // Mantener el grano en la ltima fila
 8001f80:	f507 4380 	add.w	r3, r7, #16384	@ 0x4000
 8001f84:	f103 030c 	add.w	r3, r3, #12
 8001f88:	681b      	ldr	r3, [r3, #0]
 8001f8a:	b21a      	sxth	r2, r3
 8001f8c:	f107 0340 	add.w	r3, r7, #64	@ 0x40
 8001f90:	4619      	mov	r1, r3
 8001f92:	f507 4380 	add.w	r3, r7, #16384	@ 0x4000
 8001f96:	f103 030c 	add.w	r3, r3, #12
 8001f9a:	681b      	ldr	r3, [r3, #0]
 8001f9c:	005b      	lsls	r3, r3, #1
 8001f9e:	440b      	add	r3, r1
 8001fa0:	f823 2c34 	strh.w	r2, [r3, #-52]
for (int col = 0; col < WIDTH; col++) {
 8001fa4:	f507 4380 	add.w	r3, r7, #16384	@ 0x4000
 8001fa8:	f103 0338 	add.w	r3, r3, #56	@ 0x38
 8001fac:	681b      	ldr	r3, [r3, #0]
 8001fae:	3301      	adds	r3, #1
 8001fb0:	f507 4280 	add.w	r2, r7, #16384	@ 0x4000
 8001fb4:	f102 0238 	add.w	r2, r2, #56	@ 0x38
 8001fb8:	6013      	str	r3, [r2, #0]
 8001fba:	f507 4380 	add.w	r3, r7, #16384	@ 0x4000
 8001fbe:	f103 0338 	add.w	r3, r3, #56	@ 0x38
 8001fc2:	681b      	ldr	r3, [r3, #0]
 8001fc4:	2b3f      	cmp	r3, #63	@ 0x3f
 8001fc6:	ddc1      	ble.n	8001f4c <LED_FallingSand+0x2c4>
    }
}

// Fase 2: Calcular el siguiente estado
for (int row = HEIGHT - 2; row >= 0; row--) {  // Recorrer de abajo hacia arriba
 8001fc8:	233e      	movs	r3, #62	@ 0x3e
 8001fca:	f507 4280 	add.w	r2, r7, #16384	@ 0x4000
 8001fce:	f102 0234 	add.w	r2, r2, #52	@ 0x34
 8001fd2:	6013      	str	r3, [r2, #0]
 8001fd4:	e126      	b.n	8002224 <LED_FallingSand+0x59c>
    for (int col = 0; col < WIDTH; col++) {
 8001fd6:	2300      	movs	r3, #0
 8001fd8:	f507 4280 	add.w	r2, r7, #16384	@ 0x4000
 8001fdc:	f102 0230 	add.w	r2, r2, #48	@ 0x30
 8001fe0:	6013      	str	r3, [r2, #0]
 8001fe2:	e10c      	b.n	80021fe <LED_FallingSand+0x576>
        int current_index = row * WIDTH + col;
 8001fe4:	f507 4380 	add.w	r3, r7, #16384	@ 0x4000
 8001fe8:	f103 0334 	add.w	r3, r3, #52	@ 0x34
 8001fec:	681b      	ldr	r3, [r3, #0]
 8001fee:	019b      	lsls	r3, r3, #6
 8001ff0:	f507 4280 	add.w	r2, r7, #16384	@ 0x4000
 8001ff4:	f102 0230 	add.w	r2, r2, #48	@ 0x30
 8001ff8:	6812      	ldr	r2, [r2, #0]
 8001ffa:	4413      	add	r3, r2
 8001ffc:	f507 4280 	add.w	r2, r7, #16384	@ 0x4000
 8002000:	f102 021c 	add.w	r2, r2, #28
 8002004:	6013      	str	r3, [r2, #0]

        // Si el grano de arena est presente en el estado_actual
        if (estado_actual[current_index] == 1) {
 8002006:	f507 5301 	add.w	r3, r7, #8256	@ 0x2040
 800200a:	461a      	mov	r2, r3
 800200c:	f507 4380 	add.w	r3, r7, #16384	@ 0x4000
 8002010:	f103 031c 	add.w	r3, r3, #28
 8002014:	681b      	ldr	r3, [r3, #0]
 8002016:	005b      	lsls	r3, r3, #1
 8002018:	4413      	add	r3, r2
 800201a:	f833 3c34 	ldrh.w	r3, [r3, #-52]
 800201e:	2b01      	cmp	r3, #1
 8002020:	f040 80e2 	bne.w	80021e8 <LED_FallingSand+0x560>
            // Verificar si el espacio de abajo est libre
            int abajo_index = (row + 1) * WIDTH + col;
 8002024:	f507 4380 	add.w	r3, r7, #16384	@ 0x4000
 8002028:	f103 0334 	add.w	r3, r3, #52	@ 0x34
 800202c:	681b      	ldr	r3, [r3, #0]
 800202e:	3301      	adds	r3, #1
 8002030:	019b      	lsls	r3, r3, #6
 8002032:	f507 4280 	add.w	r2, r7, #16384	@ 0x4000
 8002036:	f102 0230 	add.w	r2, r2, #48	@ 0x30
 800203a:	6812      	ldr	r2, [r2, #0]
 800203c:	4413      	add	r3, r2
 800203e:	f507 4280 	add.w	r2, r7, #16384	@ 0x4000
 8002042:	f102 0218 	add.w	r2, r2, #24
 8002046:	6013      	str	r3, [r2, #0]
            if (estado_actual[abajo_index] == 0) {
 8002048:	f507 5301 	add.w	r3, r7, #8256	@ 0x2040
 800204c:	461a      	mov	r2, r3
 800204e:	f507 4380 	add.w	r3, r7, #16384	@ 0x4000
 8002052:	f103 0318 	add.w	r3, r3, #24
 8002056:	681b      	ldr	r3, [r3, #0]
 8002058:	005b      	lsls	r3, r3, #1
 800205a:	4413      	add	r3, r2
 800205c:	f833 3c34 	ldrh.w	r3, [r3, #-52]
 8002060:	2b00      	cmp	r3, #0
 8002062:	d11f      	bne.n	80020a4 <LED_FallingSand+0x41c>
                // Mover el grano de arena hacia abajo
                siguiente_estado[abajo_index] = current_index;
 8002064:	f507 4380 	add.w	r3, r7, #16384	@ 0x4000
 8002068:	f103 031c 	add.w	r3, r3, #28
 800206c:	681b      	ldr	r3, [r3, #0]
 800206e:	b21a      	sxth	r2, r3
 8002070:	f107 0340 	add.w	r3, r7, #64	@ 0x40
 8002074:	4619      	mov	r1, r3
 8002076:	f507 4380 	add.w	r3, r7, #16384	@ 0x4000
 800207a:	f103 0318 	add.w	r3, r3, #24
 800207e:	681b      	ldr	r3, [r3, #0]
 8002080:	005b      	lsls	r3, r3, #1
 8002082:	440b      	add	r3, r1
 8002084:	f823 2c34 	strh.w	r2, [r3, #-52]
                estado_actual[current_index] = 0;
 8002088:	f507 5301 	add.w	r3, r7, #8256	@ 0x2040
 800208c:	461a      	mov	r2, r3
 800208e:	f507 4380 	add.w	r3, r7, #16384	@ 0x4000
 8002092:	f103 031c 	add.w	r3, r3, #28
 8002096:	681b      	ldr	r3, [r3, #0]
 8002098:	005b      	lsls	r3, r3, #1
 800209a:	4413      	add	r3, r2
 800209c:	2200      	movs	r2, #0
 800209e:	f823 2c34 	strh.w	r2, [r3, #-52]
 80020a2:	e0a1      	b.n	80021e8 <LED_FallingSand+0x560>
            } else {
                // Intentar mover hacia abajo a la izquierda o derecha
                int abajoIzquierda_index = (row + 1) * WIDTH + (col - 1);
 80020a4:	f507 4380 	add.w	r3, r7, #16384	@ 0x4000
 80020a8:	f103 0334 	add.w	r3, r3, #52	@ 0x34
 80020ac:	681b      	ldr	r3, [r3, #0]
 80020ae:	3301      	adds	r3, #1
 80020b0:	019a      	lsls	r2, r3, #6
 80020b2:	f507 4380 	add.w	r3, r7, #16384	@ 0x4000
 80020b6:	f103 0330 	add.w	r3, r3, #48	@ 0x30
 80020ba:	681b      	ldr	r3, [r3, #0]
 80020bc:	3b01      	subs	r3, #1
 80020be:	4413      	add	r3, r2
 80020c0:	f507 4280 	add.w	r2, r7, #16384	@ 0x4000
 80020c4:	f102 0214 	add.w	r2, r2, #20
 80020c8:	6013      	str	r3, [r2, #0]
                if (col > 0 && estado_actual[abajoIzquierda_index] == 0) {
 80020ca:	f507 4380 	add.w	r3, r7, #16384	@ 0x4000
 80020ce:	f103 0330 	add.w	r3, r3, #48	@ 0x30
 80020d2:	681b      	ldr	r3, [r3, #0]
 80020d4:	2b00      	cmp	r3, #0
 80020d6:	dd2d      	ble.n	8002134 <LED_FallingSand+0x4ac>
 80020d8:	f507 5301 	add.w	r3, r7, #8256	@ 0x2040
 80020dc:	461a      	mov	r2, r3
 80020de:	f507 4380 	add.w	r3, r7, #16384	@ 0x4000
 80020e2:	f103 0314 	add.w	r3, r3, #20
 80020e6:	681b      	ldr	r3, [r3, #0]
 80020e8:	005b      	lsls	r3, r3, #1
 80020ea:	4413      	add	r3, r2
 80020ec:	f833 3c34 	ldrh.w	r3, [r3, #-52]
 80020f0:	2b00      	cmp	r3, #0
 80020f2:	d11f      	bne.n	8002134 <LED_FallingSand+0x4ac>
                    siguiente_estado[abajoIzquierda_index] = current_index;
 80020f4:	f507 4380 	add.w	r3, r7, #16384	@ 0x4000
 80020f8:	f103 031c 	add.w	r3, r3, #28
 80020fc:	681b      	ldr	r3, [r3, #0]
 80020fe:	b21a      	sxth	r2, r3
 8002100:	f107 0340 	add.w	r3, r7, #64	@ 0x40
 8002104:	4619      	mov	r1, r3
 8002106:	f507 4380 	add.w	r3, r7, #16384	@ 0x4000
 800210a:	f103 0314 	add.w	r3, r3, #20
 800210e:	681b      	ldr	r3, [r3, #0]
 8002110:	005b      	lsls	r3, r3, #1
 8002112:	440b      	add	r3, r1
 8002114:	f823 2c34 	strh.w	r2, [r3, #-52]
                    estado_actual[current_index] = 0;
 8002118:	f507 5301 	add.w	r3, r7, #8256	@ 0x2040
 800211c:	461a      	mov	r2, r3
 800211e:	f507 4380 	add.w	r3, r7, #16384	@ 0x4000
 8002122:	f103 031c 	add.w	r3, r3, #28
 8002126:	681b      	ldr	r3, [r3, #0]
 8002128:	005b      	lsls	r3, r3, #1
 800212a:	4413      	add	r3, r2
 800212c:	2200      	movs	r2, #0
 800212e:	f823 2c34 	strh.w	r2, [r3, #-52]
 8002132:	e059      	b.n	80021e8 <LED_FallingSand+0x560>
                } else {
                    int abajoDerecha_index = (row + 1) * WIDTH + (col + 1);
 8002134:	f507 4380 	add.w	r3, r7, #16384	@ 0x4000
 8002138:	f103 0334 	add.w	r3, r3, #52	@ 0x34
 800213c:	681b      	ldr	r3, [r3, #0]
 800213e:	3301      	adds	r3, #1
 8002140:	019a      	lsls	r2, r3, #6
 8002142:	f507 4380 	add.w	r3, r7, #16384	@ 0x4000
 8002146:	f103 0330 	add.w	r3, r3, #48	@ 0x30
 800214a:	681b      	ldr	r3, [r3, #0]
 800214c:	3301      	adds	r3, #1
 800214e:	4413      	add	r3, r2
 8002150:	f507 4280 	add.w	r2, r7, #16384	@ 0x4000
 8002154:	f102 0210 	add.w	r2, r2, #16
 8002158:	6013      	str	r3, [r2, #0]
                    if (col < WIDTH - 1 && estado_actual[abajoDerecha_index] == 0) {
 800215a:	f507 4380 	add.w	r3, r7, #16384	@ 0x4000
 800215e:	f103 0330 	add.w	r3, r3, #48	@ 0x30
 8002162:	681b      	ldr	r3, [r3, #0]
 8002164:	2b3e      	cmp	r3, #62	@ 0x3e
 8002166:	dc2d      	bgt.n	80021c4 <LED_FallingSand+0x53c>
 8002168:	f507 5301 	add.w	r3, r7, #8256	@ 0x2040
 800216c:	461a      	mov	r2, r3
 800216e:	f507 4380 	add.w	r3, r7, #16384	@ 0x4000
 8002172:	f103 0310 	add.w	r3, r3, #16
 8002176:	681b      	ldr	r3, [r3, #0]
 8002178:	005b      	lsls	r3, r3, #1
 800217a:	4413      	add	r3, r2
 800217c:	f833 3c34 	ldrh.w	r3, [r3, #-52]
 8002180:	2b00      	cmp	r3, #0
 8002182:	d11f      	bne.n	80021c4 <LED_FallingSand+0x53c>
                        siguiente_estado[abajoDerecha_index] = current_index;
 8002184:	f507 4380 	add.w	r3, r7, #16384	@ 0x4000
 8002188:	f103 031c 	add.w	r3, r3, #28
 800218c:	681b      	ldr	r3, [r3, #0]
 800218e:	b21a      	sxth	r2, r3
 8002190:	f107 0340 	add.w	r3, r7, #64	@ 0x40
 8002194:	4619      	mov	r1, r3
 8002196:	f507 4380 	add.w	r3, r7, #16384	@ 0x4000
 800219a:	f103 0310 	add.w	r3, r3, #16
 800219e:	681b      	ldr	r3, [r3, #0]
 80021a0:	005b      	lsls	r3, r3, #1
 80021a2:	440b      	add	r3, r1
 80021a4:	f823 2c34 	strh.w	r2, [r3, #-52]
                        estado_actual[current_index] = 0;
 80021a8:	f507 5301 	add.w	r3, r7, #8256	@ 0x2040
 80021ac:	461a      	mov	r2, r3
 80021ae:	f507 4380 	add.w	r3, r7, #16384	@ 0x4000
 80021b2:	f103 031c 	add.w	r3, r3, #28
 80021b6:	681b      	ldr	r3, [r3, #0]
 80021b8:	005b      	lsls	r3, r3, #1
 80021ba:	4413      	add	r3, r2
 80021bc:	2200      	movs	r2, #0
 80021be:	f823 2c34 	strh.w	r2, [r3, #-52]
 80021c2:	e011      	b.n	80021e8 <LED_FallingSand+0x560>
                    } else {
                        // Si no puede moverse, se queda en su posicin actual
                        siguiente_estado[current_index] = current_index;
 80021c4:	f507 4380 	add.w	r3, r7, #16384	@ 0x4000
 80021c8:	f103 031c 	add.w	r3, r3, #28
 80021cc:	681b      	ldr	r3, [r3, #0]
 80021ce:	b21a      	sxth	r2, r3
 80021d0:	f107 0340 	add.w	r3, r7, #64	@ 0x40
 80021d4:	4619      	mov	r1, r3
 80021d6:	f507 4380 	add.w	r3, r7, #16384	@ 0x4000
 80021da:	f103 031c 	add.w	r3, r3, #28
 80021de:	681b      	ldr	r3, [r3, #0]
 80021e0:	005b      	lsls	r3, r3, #1
 80021e2:	440b      	add	r3, r1
 80021e4:	f823 2c34 	strh.w	r2, [r3, #-52]
    for (int col = 0; col < WIDTH; col++) {
 80021e8:	f507 4380 	add.w	r3, r7, #16384	@ 0x4000
 80021ec:	f103 0330 	add.w	r3, r3, #48	@ 0x30
 80021f0:	681b      	ldr	r3, [r3, #0]
 80021f2:	3301      	adds	r3, #1
 80021f4:	f507 4280 	add.w	r2, r7, #16384	@ 0x4000
 80021f8:	f102 0230 	add.w	r2, r2, #48	@ 0x30
 80021fc:	6013      	str	r3, [r2, #0]
 80021fe:	f507 4380 	add.w	r3, r7, #16384	@ 0x4000
 8002202:	f103 0330 	add.w	r3, r3, #48	@ 0x30
 8002206:	681b      	ldr	r3, [r3, #0]
 8002208:	2b3f      	cmp	r3, #63	@ 0x3f
 800220a:	f77f aeeb 	ble.w	8001fe4 <LED_FallingSand+0x35c>
for (int row = HEIGHT - 2; row >= 0; row--) {  // Recorrer de abajo hacia arriba
 800220e:	f507 4380 	add.w	r3, r7, #16384	@ 0x4000
 8002212:	f103 0334 	add.w	r3, r3, #52	@ 0x34
 8002216:	681b      	ldr	r3, [r3, #0]
 8002218:	3b01      	subs	r3, #1
 800221a:	f507 4280 	add.w	r2, r7, #16384	@ 0x4000
 800221e:	f102 0234 	add.w	r2, r2, #52	@ 0x34
 8002222:	6013      	str	r3, [r2, #0]
 8002224:	f507 4380 	add.w	r3, r7, #16384	@ 0x4000
 8002228:	f103 0334 	add.w	r3, r3, #52	@ 0x34
 800222c:	681b      	ldr	r3, [r3, #0]
 800222e:	2b00      	cmp	r3, #0
 8002230:	f6bf aed1 	bge.w	8001fd6 <LED_FallingSand+0x34e>
        }
    }
}

    // Ahora, calculamos el frame final con la informacin de siguiente_estado
    for (uint8_t row = 0; row < HEIGHT; row++) {
 8002234:	2300      	movs	r3, #0
 8002236:	f507 4280 	add.w	r2, r7, #16384	@ 0x4000
 800223a:	f102 022f 	add.w	r2, r2, #47	@ 0x2f
 800223e:	7013      	strb	r3, [r2, #0]
 8002240:	e088      	b.n	8002354 <LED_FallingSand+0x6cc>
        for (uint8_t col = 0; col < WIDTH; col++) {
 8002242:	2300      	movs	r3, #0
 8002244:	f507 4280 	add.w	r2, r7, #16384	@ 0x4000
 8002248:	f102 022e 	add.w	r2, r2, #46	@ 0x2e
 800224c:	7013      	strb	r3, [r2, #0]
 800224e:	e06f      	b.n	8002330 <LED_FallingSand+0x6a8>
            index = row * WIDTH + col;
 8002250:	f507 4380 	add.w	r3, r7, #16384	@ 0x4000
 8002254:	f103 032f 	add.w	r3, r3, #47	@ 0x2f
 8002258:	781b      	ldrb	r3, [r3, #0]
 800225a:	019a      	lsls	r2, r3, #6
 800225c:	f507 4380 	add.w	r3, r7, #16384	@ 0x4000
 8002260:	f103 032e 	add.w	r3, r3, #46	@ 0x2e
 8002264:	781b      	ldrb	r3, [r3, #0]
 8002266:	4413      	add	r3, r2
 8002268:	f507 4280 	add.w	r2, r7, #16384	@ 0x4000
 800226c:	f102 0224 	add.w	r2, r2, #36	@ 0x24
 8002270:	6013      	str	r3, [r2, #0]
            if (siguiente_estado[index] != -1) {
 8002272:	f107 0340 	add.w	r3, r7, #64	@ 0x40
 8002276:	461a      	mov	r2, r3
 8002278:	f507 4380 	add.w	r3, r7, #16384	@ 0x4000
 800227c:	f103 0324 	add.w	r3, r3, #36	@ 0x24
 8002280:	681b      	ldr	r3, [r3, #0]
 8002282:	005b      	lsls	r3, r3, #1
 8002284:	4413      	add	r3, r2
 8002286:	f933 3c34 	ldrsh.w	r3, [r3, #-52]
 800228a:	f1b3 3fff 	cmp.w	r3, #4294967295	@ 0xffffffff
 800228e:	d031      	beq.n	80022f4 <LED_FallingSand+0x66c>
                uint32_t origin_index = siguiente_estado[index];
 8002290:	f107 0340 	add.w	r3, r7, #64	@ 0x40
 8002294:	461a      	mov	r2, r3
 8002296:	f507 4380 	add.w	r3, r7, #16384	@ 0x4000
 800229a:	f103 0324 	add.w	r3, r3, #36	@ 0x24
 800229e:	681b      	ldr	r3, [r3, #0]
 80022a0:	005b      	lsls	r3, r3, #1
 80022a2:	4413      	add	r3, r2
 80022a4:	f933 3c34 	ldrsh.w	r3, [r3, #-52]
 80022a8:	f507 4280 	add.w	r2, r7, #16384	@ 0x4000
 80022ac:	f102 0220 	add.w	r2, r2, #32
 80022b0:	6013      	str	r3, [r2, #0]
                frame[index] = frame_auxiliar[origin_index];  // El grano se mueve a la nueva posicin
 80022b2:	f507 4380 	add.w	r3, r7, #16384	@ 0x4000
 80022b6:	f103 0320 	add.w	r3, r3, #32
 80022ba:	681a      	ldr	r2, [r3, #0]
 80022bc:	4613      	mov	r3, r2
 80022be:	005b      	lsls	r3, r3, #1
 80022c0:	4413      	add	r3, r2
 80022c2:	f507 4280 	add.w	r2, r7, #16384	@ 0x4000
 80022c6:	f102 0228 	add.w	r2, r2, #40	@ 0x28
 80022ca:	6812      	ldr	r2, [r2, #0]
 80022cc:	18d1      	adds	r1, r2, r3
 80022ce:	f507 4380 	add.w	r3, r7, #16384	@ 0x4000
 80022d2:	f103 0324 	add.w	r3, r3, #36	@ 0x24
 80022d6:	681a      	ldr	r2, [r3, #0]
 80022d8:	4613      	mov	r3, r2
 80022da:	005b      	lsls	r3, r3, #1
 80022dc:	4413      	add	r3, r2
 80022de:	f107 0240 	add.w	r2, r7, #64	@ 0x40
 80022e2:	f852 2c3c 	ldr.w	r2, [r2, #-60]
 80022e6:	4413      	add	r3, r2
 80022e8:	460a      	mov	r2, r1
 80022ea:	8811      	ldrh	r1, [r2, #0]
 80022ec:	7892      	ldrb	r2, [r2, #2]
 80022ee:	8019      	strh	r1, [r3, #0]
 80022f0:	709a      	strb	r2, [r3, #2]
 80022f2:	e012      	b.n	800231a <LED_FallingSand+0x692>
            } else {
                frame[index] = (RGB_t){0x00, 0x00, 0x00};  // Si no se mueve, queda vaco
 80022f4:	f507 4380 	add.w	r3, r7, #16384	@ 0x4000
 80022f8:	f103 0324 	add.w	r3, r3, #36	@ 0x24
 80022fc:	681a      	ldr	r2, [r3, #0]
 80022fe:	4613      	mov	r3, r2
 8002300:	005b      	lsls	r3, r3, #1
 8002302:	4413      	add	r3, r2
 8002304:	f107 0240 	add.w	r2, r7, #64	@ 0x40
 8002308:	f852 2c3c 	ldr.w	r2, [r2, #-60]
 800230c:	4413      	add	r3, r2
 800230e:	2200      	movs	r2, #0
 8002310:	701a      	strb	r2, [r3, #0]
 8002312:	2200      	movs	r2, #0
 8002314:	705a      	strb	r2, [r3, #1]
 8002316:	2200      	movs	r2, #0
 8002318:	709a      	strb	r2, [r3, #2]
        for (uint8_t col = 0; col < WIDTH; col++) {
 800231a:	f507 4380 	add.w	r3, r7, #16384	@ 0x4000
 800231e:	f103 032e 	add.w	r3, r3, #46	@ 0x2e
 8002322:	781b      	ldrb	r3, [r3, #0]
 8002324:	3301      	adds	r3, #1
 8002326:	f507 4280 	add.w	r2, r7, #16384	@ 0x4000
 800232a:	f102 022e 	add.w	r2, r2, #46	@ 0x2e
 800232e:	7013      	strb	r3, [r2, #0]
 8002330:	f507 4380 	add.w	r3, r7, #16384	@ 0x4000
 8002334:	f103 032e 	add.w	r3, r3, #46	@ 0x2e
 8002338:	781b      	ldrb	r3, [r3, #0]
 800233a:	2b3f      	cmp	r3, #63	@ 0x3f
 800233c:	d988      	bls.n	8002250 <LED_FallingSand+0x5c8>
    for (uint8_t row = 0; row < HEIGHT; row++) {
 800233e:	f507 4380 	add.w	r3, r7, #16384	@ 0x4000
 8002342:	f103 032f 	add.w	r3, r3, #47	@ 0x2f
 8002346:	781b      	ldrb	r3, [r3, #0]
 8002348:	3301      	adds	r3, #1
 800234a:	f507 4280 	add.w	r2, r7, #16384	@ 0x4000
 800234e:	f102 022f 	add.w	r2, r2, #47	@ 0x2f
 8002352:	7013      	strb	r3, [r2, #0]
 8002354:	f507 4380 	add.w	r3, r7, #16384	@ 0x4000
 8002358:	f103 032f 	add.w	r3, r3, #47	@ 0x2f
 800235c:	781b      	ldrb	r3, [r3, #0]
 800235e:	2b3f      	cmp	r3, #63	@ 0x3f
 8002360:	f67f af6f 	bls.w	8002242 <LED_FallingSand+0x5ba>
            }
        }
    }
    free(frame_auxiliar);
 8002364:	f507 4380 	add.w	r3, r7, #16384	@ 0x4000
 8002368:	f103 0328 	add.w	r3, r3, #40	@ 0x28
 800236c:	6818      	ldr	r0, [r3, #0]
 800236e:	f001 fdaf 	bl	8003ed0 <free>
 8002372:	e000      	b.n	8002376 <LED_FallingSand+0x6ee>
        return;
 8002374:	bf00      	nop
}
 8002376:	f507 4780 	add.w	r7, r7, #16384	@ 0x4000
 800237a:	3740      	adds	r7, #64	@ 0x40
 800237c:	46bd      	mov	sp, r7
 800237e:	bd80      	pop	{r7, pc}

08002380 <LED_ApplyChanges>:
    LED_fillBuffer(video[current_frame], nextBuffer);
    current_frame = (current_frame+1)%cantidad_frames;
}

// Aplico un cambio
void LED_ApplyChanges(RGB_t *frame, frame_diff_t *frame_diference){
 8002380:	b480      	push	{r7}
 8002382:	b085      	sub	sp, #20
 8002384:	af00      	add	r7, sp, #0
 8002386:	6078      	str	r0, [r7, #4]
 8002388:	6039      	str	r1, [r7, #0]
    // Recorro todos los cambios
    for (size_t i = 0; i < frame_diference->cantidad_de_cambios; i++){
 800238a:	2300      	movs	r3, #0
 800238c:	60fb      	str	r3, [r7, #12]
 800238e:	e020      	b.n	80023d2 <LED_ApplyChanges+0x52>
        uint16_t indice_actual = frame_diference->array_cambios_pixeles[i].index;
 8002390:	683b      	ldr	r3, [r7, #0]
 8002392:	6859      	ldr	r1, [r3, #4]
 8002394:	68fa      	ldr	r2, [r7, #12]
 8002396:	4613      	mov	r3, r2
 8002398:	005b      	lsls	r3, r3, #1
 800239a:	4413      	add	r3, r2
 800239c:	005b      	lsls	r3, r3, #1
 800239e:	440b      	add	r3, r1
 80023a0:	881b      	ldrh	r3, [r3, #0]
 80023a2:	817b      	strh	r3, [r7, #10]
        frame[indice_actual]=  frame_diference->array_cambios_pixeles[i].nuevo_valor;
 80023a4:	683b      	ldr	r3, [r7, #0]
 80023a6:	6859      	ldr	r1, [r3, #4]
 80023a8:	68fa      	ldr	r2, [r7, #12]
 80023aa:	4613      	mov	r3, r2
 80023ac:	005b      	lsls	r3, r3, #1
 80023ae:	4413      	add	r3, r2
 80023b0:	005b      	lsls	r3, r3, #1
 80023b2:	4419      	add	r1, r3
 80023b4:	897a      	ldrh	r2, [r7, #10]
 80023b6:	4613      	mov	r3, r2
 80023b8:	005b      	lsls	r3, r3, #1
 80023ba:	4413      	add	r3, r2
 80023bc:	687a      	ldr	r2, [r7, #4]
 80023be:	4413      	add	r3, r2
 80023c0:	461a      	mov	r2, r3
 80023c2:	1c8b      	adds	r3, r1, #2
 80023c4:	8819      	ldrh	r1, [r3, #0]
 80023c6:	789b      	ldrb	r3, [r3, #2]
 80023c8:	8011      	strh	r1, [r2, #0]
 80023ca:	7093      	strb	r3, [r2, #2]
    for (size_t i = 0; i < frame_diference->cantidad_de_cambios; i++){
 80023cc:	68fb      	ldr	r3, [r7, #12]
 80023ce:	3301      	adds	r3, #1
 80023d0:	60fb      	str	r3, [r7, #12]
 80023d2:	683b      	ldr	r3, [r7, #0]
 80023d4:	881b      	ldrh	r3, [r3, #0]
 80023d6:	461a      	mov	r2, r3
 80023d8:	68fb      	ldr	r3, [r7, #12]
 80023da:	4293      	cmp	r3, r2
 80023dc:	d3d8      	bcc.n	8002390 <LED_ApplyChanges+0x10>
    }
    
}
 80023de:	bf00      	nop
 80023e0:	bf00      	nop
 80023e2:	3714      	adds	r7, #20
 80023e4:	46bd      	mov	sp, r7
 80023e6:	f85d 7b04 	ldr.w	r7, [sp], #4
 80023ea:	4770      	bx	lr

080023ec <LED_VideoByFrameChanges>:

void LED_VideoByFrameChanges(RGB_t *frame, const video_by_changes_t* video){
 80023ec:	b580      	push	{r7, lr}
 80023ee:	b082      	sub	sp, #8
 80023f0:	af00      	add	r7, sp, #0
 80023f2:	6078      	str	r0, [r7, #4]
 80023f4:	6039      	str	r1, [r7, #0]
    static uint32_t current_frame =0;
    if(current_frame==0){
 80023f6:	4b19      	ldr	r3, [pc, #100]	@ (800245c <LED_VideoByFrameChanges+0x70>)
 80023f8:	681b      	ldr	r3, [r3, #0]
 80023fa:	2b00      	cmp	r3, #0
 80023fc:	d106      	bne.n	800240c <LED_VideoByFrameChanges+0x20>
        LED_Image(frame, video->frame_inicial);
 80023fe:	683b      	ldr	r3, [r7, #0]
 8002400:	685b      	ldr	r3, [r3, #4]
 8002402:	4619      	mov	r1, r3
 8002404:	6878      	ldr	r0, [r7, #4]
 8002406:	f7ff f9fb 	bl	8001800 <LED_Image>
 800240a:	e00c      	b.n	8002426 <LED_VideoByFrameChanges+0x3a>
    }else{
    	LED_ApplyChanges(frame, &video->array_diferencias_frames[current_frame-1]);
 800240c:	683b      	ldr	r3, [r7, #0]
 800240e:	689a      	ldr	r2, [r3, #8]
 8002410:	4b12      	ldr	r3, [pc, #72]	@ (800245c <LED_VideoByFrameChanges+0x70>)
 8002412:	681b      	ldr	r3, [r3, #0]
 8002414:	f103 5300 	add.w	r3, r3, #536870912	@ 0x20000000
 8002418:	3b01      	subs	r3, #1
 800241a:	00db      	lsls	r3, r3, #3
 800241c:	4413      	add	r3, r2
 800241e:	4619      	mov	r1, r3
 8002420:	6878      	ldr	r0, [r7, #4]
 8002422:	f7ff ffad 	bl	8002380 <LED_ApplyChanges>
    }
    current_frame = (current_frame+1)%video->cantidad_de_frames;
 8002426:	4b0d      	ldr	r3, [pc, #52]	@ (800245c <LED_VideoByFrameChanges+0x70>)
 8002428:	681b      	ldr	r3, [r3, #0]
 800242a:	3301      	adds	r3, #1
 800242c:	683a      	ldr	r2, [r7, #0]
 800242e:	8812      	ldrh	r2, [r2, #0]
 8002430:	fbb3 f1f2 	udiv	r1, r3, r2
 8002434:	fb01 f202 	mul.w	r2, r1, r2
 8002438:	1a9b      	subs	r3, r3, r2
 800243a:	4a08      	ldr	r2, [pc, #32]	@ (800245c <LED_VideoByFrameChanges+0x70>)
 800243c:	6013      	str	r3, [r2, #0]
    HAL_Delay(video->duracion_ms/video->cantidad_de_frames);
 800243e:	683b      	ldr	r3, [r7, #0]
 8002440:	899a      	ldrh	r2, [r3, #12]
 8002442:	683b      	ldr	r3, [r7, #0]
 8002444:	881b      	ldrh	r3, [r3, #0]
 8002446:	fbb2 f3f3 	udiv	r3, r2, r3
 800244a:	b29b      	uxth	r3, r3
 800244c:	4618      	mov	r0, r3
 800244e:	f000 fcef 	bl	8002e30 <HAL_Delay>
}
 8002452:	bf00      	nop
 8002454:	3708      	adds	r7, #8
 8002456:	46bd      	mov	sp, r7
 8002458:	bd80      	pop	{r7, pc}
 800245a:	bf00      	nop
 800245c:	2000b4a8 	.word	0x2000b4a8

08002460 <main>:
/**
  * @brief  The application entry point.
  * @retval int
  */
int main(void)
{
 8002460:	b580      	push	{r7, lr}
 8002462:	b08a      	sub	sp, #40	@ 0x28
 8002464:	af04      	add	r7, sp, #16

  /* USER CODE BEGIN 1 */
 	GPIO_InitTypeDef GPIO_InitStruct = {0};
 8002466:	1d3b      	adds	r3, r7, #4
 8002468:	2200      	movs	r2, #0
 800246a:	601a      	str	r2, [r3, #0]
 800246c:	605a      	str	r2, [r3, #4]
 800246e:	609a      	str	r2, [r3, #8]
 8002470:	60da      	str	r2, [r3, #12]
 8002472:	611a      	str	r2, [r3, #16]
	GPIO_InitStruct.Pin = BOTON_Pin;
 8002474:	f44f 5300 	mov.w	r3, #8192	@ 0x2000
 8002478:	607b      	str	r3, [r7, #4]
	GPIO_InitStruct.Mode = GPIO_MODE_IT_FALLING;
 800247a:	f44f 1304 	mov.w	r3, #2162688	@ 0x210000
 800247e:	60bb      	str	r3, [r7, #8]
	GPIO_InitStruct.Pull = GPIO_NOPULL;
 8002480:	2300      	movs	r3, #0
 8002482:	60fb      	str	r3, [r7, #12]
	HAL_GPIO_Init(BOTON_GPIO_Port, &GPIO_InitStruct);
 8002484:	1d3b      	adds	r3, r7, #4
 8002486:	4619      	mov	r1, r3
 8002488:	486f      	ldr	r0, [pc, #444]	@ (8002648 <main+0x1e8>)
 800248a:	f001 f985 	bl	8003798 <HAL_GPIO_Init>
	HAL_NVIC_SetPriority(EXTI15_10_IRQn, 0, 0);
 800248e:	2200      	movs	r2, #0
 8002490:	2100      	movs	r1, #0
 8002492:	2028      	movs	r0, #40	@ 0x28
 8002494:	f001 f955 	bl	8003742 <HAL_NVIC_SetPriority>
	HAL_NVIC_EnableIRQ(EXTI15_10_IRQn);
 8002498:	2028      	movs	r0, #40	@ 0x28
 800249a:	f001 f96e 	bl	800377a <HAL_NVIC_EnableIRQ>
	init();
 800249e:	f7fe fc9d 	bl	8000ddc <init>
	MX_TIM6_Init();
 80024a2:	f000 fa35 	bl	8002910 <MX_TIM6_Init>
	MX_ADC2_Init();
 80024a6:	f000 f9e1 	bl	800286c <MX_ADC2_Init>

  /* MCU Configuration--------------------------------------------------------*/


  /* USER CODE BEGIN 2 */
  HAL_TIM_Base_Start_IT(&htim6);
 80024aa:	4868      	ldr	r0, [pc, #416]	@ (800264c <main+0x1ec>)
 80024ac:	f001 fb70 	bl	8003b90 <HAL_TIM_Base_Start_IT>
  while (1)
  {
    /* USER CODE END WHILE */

    /* USER CODE BEGIN 3 */
      start_time = HAL_GetTick();
 80024b0:	f000 fcb2 	bl	8002e18 <HAL_GetTick>
 80024b4:	4603      	mov	r3, r0
 80024b6:	4a66      	ldr	r2, [pc, #408]	@ (8002650 <main+0x1f0>)
 80024b8:	6013      	str	r3, [r2, #0]
      while(busyFlag); // Bloquea el CPU mientras el DMA labura
 80024ba:	bf00      	nop
 80024bc:	4b65      	ldr	r3, [pc, #404]	@ (8002654 <main+0x1f4>)
 80024be:	781b      	ldrb	r3, [r3, #0]
 80024c0:	b2db      	uxtb	r3, r3
 80024c2:	2b00      	cmp	r3, #0
 80024c4:	d1fa      	bne.n	80024bc <main+0x5c>
      busyFlag = 1;
 80024c6:	4b63      	ldr	r3, [pc, #396]	@ (8002654 <main+0x1f4>)
 80024c8:	2201      	movs	r2, #1
 80024ca:	701a      	strb	r2, [r3, #0]
      current_buffer = DMA2_Stream2->CR | DMA_SxCR_CT;
 80024cc:	4b62      	ldr	r3, [pc, #392]	@ (8002658 <main+0x1f8>)
 80024ce:	681b      	ldr	r3, [r3, #0]
 80024d0:	f443 2300 	orr.w	r3, r3, #524288	@ 0x80000
 80024d4:	4a61      	ldr	r2, [pc, #388]	@ (800265c <main+0x1fc>)
 80024d6:	6013      	str	r3, [r2, #0]
      nextBuffer = current_buffer ? buffer2 : buffer1;
 80024d8:	4b60      	ldr	r3, [pc, #384]	@ (800265c <main+0x1fc>)
 80024da:	681b      	ldr	r3, [r3, #0]
 80024dc:	2b00      	cmp	r3, #0
 80024de:	d001      	beq.n	80024e4 <main+0x84>
 80024e0:	4b5f      	ldr	r3, [pc, #380]	@ (8002660 <main+0x200>)
 80024e2:	e000      	b.n	80024e6 <main+0x86>
 80024e4:	4b5f      	ldr	r3, [pc, #380]	@ (8002664 <main+0x204>)
 80024e6:	4a60      	ldr	r2, [pc, #384]	@ (8002668 <main+0x208>)
 80024e8:	6013      	str	r3, [r2, #0]
      while(busyFlag);
 80024ea:	bf00      	nop
 80024ec:	4b59      	ldr	r3, [pc, #356]	@ (8002654 <main+0x1f4>)
 80024ee:	781b      	ldrb	r3, [r3, #0]
 80024f0:	b2db      	uxtb	r3, r3
 80024f2:	2b00      	cmp	r3, #0
 80024f4:	d1fa      	bne.n	80024ec <main+0x8c>
      busyFlag = 1;
 80024f6:	4b57      	ldr	r3, [pc, #348]	@ (8002654 <main+0x1f4>)
 80024f8:	2201      	movs	r2, #1
 80024fa:	701a      	strb	r2, [r3, #0]
      //programa_actual = (frame_count/frames_per_program)%total_programs;
      switch(programa_actual){
 80024fc:	4b5b      	ldr	r3, [pc, #364]	@ (800266c <main+0x20c>)
 80024fe:	781b      	ldrb	r3, [r3, #0]
 8002500:	2b08      	cmp	r3, #8
 8002502:	f200 818f 	bhi.w	8002824 <main+0x3c4>
 8002506:	a201      	add	r2, pc, #4	@ (adr r2, 800250c <main+0xac>)
 8002508:	f852 f023 	ldr.w	pc, [r2, r3, lsl #2]
 800250c:	08002531 	.word	0x08002531
 8002510:	0800254b 	.word	0x0800254b
 8002514:	0800255f 	.word	0x0800255f
 8002518:	0800256d 	.word	0x0800256d
 800251c:	0800257b 	.word	0x0800257b
 8002520:	080025ff 	.word	0x080025ff
 8002524:	080026ad 	.word	0x080026ad
 8002528:	080027c1 	.word	0x080027c1
 800252c:	0800280b 	.word	0x0800280b
      	case wave:
      		bandera_debugger=1;
 8002530:	4b4f      	ldr	r3, [pc, #316]	@ (8002670 <main+0x210>)
 8002532:	2201      	movs	r2, #1
 8002534:	701a      	strb	r2, [r3, #0]
      		LED_waveEffect(frame);
 8002536:	484f      	ldr	r0, [pc, #316]	@ (8002674 <main+0x214>)
 8002538:	f7fe fe06 	bl	8001148 <LED_waveEffect>
              // LED_rectangle(frame, red , 0, 10, 0, 40 );
      		LED_fillBuffer(frame, nextBuffer);
 800253c:	4b4a      	ldr	r3, [pc, #296]	@ (8002668 <main+0x208>)
 800253e:	681b      	ldr	r3, [r3, #0]
 8002540:	4619      	mov	r1, r3
 8002542:	484c      	ldr	r0, [pc, #304]	@ (8002674 <main+0x214>)
 8002544:	f7fe fd30 	bl	8000fa8 <LED_fillBuffer>
      		break;
 8002548:	e16c      	b.n	8002824 <main+0x3c4>
          case plasma:
      		LED_plasmaEffect(frame);
 800254a:	484a      	ldr	r0, [pc, #296]	@ (8002674 <main+0x214>)
 800254c:	f7fe ff5c 	bl	8001408 <LED_plasmaEffect>
              // LED_rectangle(frame, red , 20, 40, 20, 40 );
              LED_fillBuffer(frame, nextBuffer);
 8002550:	4b45      	ldr	r3, [pc, #276]	@ (8002668 <main+0x208>)
 8002552:	681b      	ldr	r3, [r3, #0]
 8002554:	4619      	mov	r1, r3
 8002556:	4847      	ldr	r0, [pc, #284]	@ (8002674 <main+0x214>)
 8002558:	f7fe fd26 	bl	8000fa8 <LED_fillBuffer>
      		break;
 800255c:	e162      	b.n	8002824 <main+0x3c4>

        case img1:
      		LED_fillBuffer(frame_inicial, nextBuffer);
 800255e:	4b42      	ldr	r3, [pc, #264]	@ (8002668 <main+0x208>)
 8002560:	681b      	ldr	r3, [r3, #0]
 8002562:	4619      	mov	r1, r3
 8002564:	4844      	ldr	r0, [pc, #272]	@ (8002678 <main+0x218>)
 8002566:	f7fe fd1f 	bl	8000fa8 <LED_fillBuffer>
      		break;
 800256a:	e15b      	b.n	8002824 <main+0x3c4>
      	case img2:
      		LED_fillBuffer(frame_img1, nextBuffer);
 800256c:	4b3e      	ldr	r3, [pc, #248]	@ (8002668 <main+0x208>)
 800256e:	681b      	ldr	r3, [r3, #0]
 8002570:	4619      	mov	r1, r3
 8002572:	4842      	ldr	r0, [pc, #264]	@ (800267c <main+0x21c>)
 8002574:	f7fe fd18 	bl	8000fa8 <LED_fillBuffer>
      		break;
 8002578:	e154      	b.n	8002824 <main+0x3c4>
          case adc:
				HAL_ADC_Start(&hadc2); // Dispara la lectura del ADC.
 800257a:	4841      	ldr	r0, [pc, #260]	@ (8002680 <main+0x220>)
 800257c:	f000 fcc0 	bl	8002f00 <HAL_ADC_Start>
				HAL_ADC_PollForConversion(&hadc2,10); // Bloquea hasta fin de conversin.
 8002580:	210a      	movs	r1, #10
 8002582:	483f      	ldr	r0, [pc, #252]	@ (8002680 <main+0x220>)
 8002584:	f000 fd8e 	bl	80030a4 <HAL_ADC_PollForConversion>
				value_adc=HAL_ADC_GetValue(&hadc2); // Lee el ADC.
 8002588:	483d      	ldr	r0, [pc, #244]	@ (8002680 <main+0x220>)
 800258a:	f000 fe16 	bl	80031ba <HAL_ADC_GetValue>
 800258e:	4603      	mov	r3, r0
 8002590:	4a3c      	ldr	r2, [pc, #240]	@ (8002684 <main+0x224>)
 8002592:	6013      	str	r3, [r2, #0]
				bandera_adc = 1;
 8002594:	4b3c      	ldr	r3, [pc, #240]	@ (8002688 <main+0x228>)
 8002596:	2201      	movs	r2, #1
 8002598:	701a      	strb	r2, [r3, #0]
              // Leo adc
        	  if(bandera_adc){
 800259a:	4b3b      	ldr	r3, [pc, #236]	@ (8002688 <main+0x228>)
 800259c:	781b      	ldrb	r3, [r3, #0]
 800259e:	2b00      	cmp	r3, #0
 80025a0:	f000 813e 	beq.w	8002820 <main+0x3c0>
        		  LED_analog_bar(frame, white, black, mapf((float)(value_adc), valor_min_adc, valor_max_adc, 0.0 ,1.0));
 80025a4:	4b37      	ldr	r3, [pc, #220]	@ (8002684 <main+0x224>)
 80025a6:	681b      	ldr	r3, [r3, #0]
 80025a8:	ee07 3a90 	vmov	s15, r3
 80025ac:	eef8 7a67 	vcvt.f32.u32	s15, s15
 80025b0:	4b36      	ldr	r3, [pc, #216]	@ (800268c <main+0x22c>)
 80025b2:	ed93 7a00 	vldr	s14, [r3]
 80025b6:	4b36      	ldr	r3, [pc, #216]	@ (8002690 <main+0x230>)
 80025b8:	edd3 6a00 	vldr	s13, [r3]
 80025bc:	eeb7 2a00 	vmov.f32	s4, #112	@ 0x3f800000  1.0
 80025c0:	eddf 1a34 	vldr	s3, [pc, #208]	@ 8002694 <main+0x234>
 80025c4:	eeb0 1a66 	vmov.f32	s2, s13
 80025c8:	eef0 0a47 	vmov.f32	s1, s14
 80025cc:	eeb0 0a67 	vmov.f32	s0, s15
 80025d0:	f7fe fc98 	bl	8000f04 <mapf>
 80025d4:	eef0 7a40 	vmov.f32	s15, s0
 80025d8:	4a2f      	ldr	r2, [pc, #188]	@ (8002698 <main+0x238>)
 80025da:	4b30      	ldr	r3, [pc, #192]	@ (800269c <main+0x23c>)
 80025dc:	eeb0 0a67 	vmov.f32	s0, s15
 80025e0:	6812      	ldr	r2, [r2, #0]
 80025e2:	6819      	ldr	r1, [r3, #0]
 80025e4:	4823      	ldr	r0, [pc, #140]	@ (8002674 <main+0x214>)
 80025e6:	f7ff f99d 	bl	8001924 <LED_analog_bar>
        		  //LED_analog_bar(frame, white, black, 0.7);
        		  LED_fillBuffer(frame, nextBuffer);
 80025ea:	4b1f      	ldr	r3, [pc, #124]	@ (8002668 <main+0x208>)
 80025ec:	681b      	ldr	r3, [r3, #0]
 80025ee:	4619      	mov	r1, r3
 80025f0:	4820      	ldr	r0, [pc, #128]	@ (8002674 <main+0x214>)
 80025f2:	f7fe fcd9 	bl	8000fa8 <LED_fillBuffer>
        		  bandera_adc=0;
 80025f6:	4b24      	ldr	r3, [pc, #144]	@ (8002688 <main+0x228>)
 80025f8:	2200      	movs	r2, #0
 80025fa:	701a      	strb	r2, [r3, #0]
        	  }
              break;
 80025fc:	e110      	b.n	8002820 <main+0x3c0>
          case text:
              LED_rectangle(frame, black, 0, HEIGHT, 0 ,WIDTH);
 80025fe:	4926      	ldr	r1, [pc, #152]	@ (8002698 <main+0x238>)
 8002600:	2340      	movs	r3, #64	@ 0x40
 8002602:	9301      	str	r3, [sp, #4]
 8002604:	2300      	movs	r3, #0
 8002606:	9300      	str	r3, [sp, #0]
 8002608:	2340      	movs	r3, #64	@ 0x40
 800260a:	2200      	movs	r2, #0
 800260c:	6809      	ldr	r1, [r1, #0]
 800260e:	4819      	ldr	r0, [pc, #100]	@ (8002674 <main+0x214>)
 8002610:	f7ff f92a 	bl	8001868 <LED_rectangle>
              LED_Text(frame, font, "abcdefghijklmnopkrstuvwxyz", 1,1 , red, 1);
 8002614:	2301      	movs	r3, #1
 8002616:	9302      	str	r3, [sp, #8]
 8002618:	4a21      	ldr	r2, [pc, #132]	@ (80026a0 <main+0x240>)
 800261a:	ab01      	add	r3, sp, #4
 800261c:	6812      	ldr	r2, [r2, #0]
 800261e:	4611      	mov	r1, r2
 8002620:	8019      	strh	r1, [r3, #0]
 8002622:	3302      	adds	r3, #2
 8002624:	0c12      	lsrs	r2, r2, #16
 8002626:	701a      	strb	r2, [r3, #0]
 8002628:	2301      	movs	r3, #1
 800262a:	9300      	str	r3, [sp, #0]
 800262c:	2301      	movs	r3, #1
 800262e:	4a1d      	ldr	r2, [pc, #116]	@ (80026a4 <main+0x244>)
 8002630:	491d      	ldr	r1, [pc, #116]	@ (80026a8 <main+0x248>)
 8002632:	4810      	ldr	r0, [pc, #64]	@ (8002674 <main+0x214>)
 8002634:	f7ff fa53 	bl	8001ade <LED_Text>
              LED_fillBuffer(frame, nextBuffer);
 8002638:	4b0b      	ldr	r3, [pc, #44]	@ (8002668 <main+0x208>)
 800263a:	681b      	ldr	r3, [r3, #0]
 800263c:	4619      	mov	r1, r3
 800263e:	480d      	ldr	r0, [pc, #52]	@ (8002674 <main+0x214>)
 8002640:	f7fe fcb2 	bl	8000fa8 <LED_fillBuffer>
              break;
 8002644:	e0ee      	b.n	8002824 <main+0x3c4>
 8002646:	bf00      	nop
 8002648:	40020800 	.word	0x40020800
 800264c:	2000b4f8 	.word	0x2000b4f8
 8002650:	2000b55c 	.word	0x2000b55c
 8002654:	2000b551 	.word	0x2000b551
 8002658:	40026440 	.word	0x40026440
 800265c:	2000b558 	.word	0x2000b558
 8002660:	2000749c 	.word	0x2000749c
 8002664:	2000349c 	.word	0x2000349c
 8002668:	2000b554 	.word	0x2000b554
 800266c:	20000425 	.word	0x20000425
 8002670:	20000424 	.word	0x20000424
 8002674:	2000049c 	.word	0x2000049c
 8002678:	080050a4 	.word	0x080050a4
 800267c:	080748e0 	.word	0x080748e0
 8002680:	2000b4b0 	.word	0x2000b4b0
 8002684:	2000b544 	.word	0x2000b544
 8002688:	2000b550 	.word	0x2000b550
 800268c:	2000b540 	.word	0x2000b540
 8002690:	20000420 	.word	0x20000420
 8002694:	00000000 	.word	0x00000000
 8002698:	2000b4ac 	.word	0x2000b4ac
 800269c:	2000000c 	.word	0x2000000c
 80026a0:	20000000 	.word	0x20000000
 80026a4:	08004d78 	.word	0x08004d78
 80026a8:	200003b8 	.word	0x200003b8
          case slidding_text:
              LED_rectangle(frame, black, 0, HEIGHT, 0 ,WIDTH);
 80026ac:	4962      	ldr	r1, [pc, #392]	@ (8002838 <main+0x3d8>)
 80026ae:	2340      	movs	r3, #64	@ 0x40
 80026b0:	9301      	str	r3, [sp, #4]
 80026b2:	2300      	movs	r3, #0
 80026b4:	9300      	str	r3, [sp, #0]
 80026b6:	2340      	movs	r3, #64	@ 0x40
 80026b8:	2200      	movs	r2, #0
 80026ba:	6809      	ldr	r1, [r1, #0]
 80026bc:	485f      	ldr	r0, [pc, #380]	@ (800283c <main+0x3dc>)
 80026be:	f7ff f8d3 	bl	8001868 <LED_rectangle>
              LED_SliddingText(frame, font, "muchas", 5, 5, red, 0, 1);
 80026c2:	2301      	movs	r3, #1
 80026c4:	9303      	str	r3, [sp, #12]
 80026c6:	2300      	movs	r3, #0
 80026c8:	9302      	str	r3, [sp, #8]
 80026ca:	4a5d      	ldr	r2, [pc, #372]	@ (8002840 <main+0x3e0>)
 80026cc:	ab01      	add	r3, sp, #4
 80026ce:	6812      	ldr	r2, [r2, #0]
 80026d0:	4611      	mov	r1, r2
 80026d2:	8019      	strh	r1, [r3, #0]
 80026d4:	3302      	adds	r3, #2
 80026d6:	0c12      	lsrs	r2, r2, #16
 80026d8:	701a      	strb	r2, [r3, #0]
 80026da:	2305      	movs	r3, #5
 80026dc:	9300      	str	r3, [sp, #0]
 80026de:	2305      	movs	r3, #5
 80026e0:	4a58      	ldr	r2, [pc, #352]	@ (8002844 <main+0x3e4>)
 80026e2:	4959      	ldr	r1, [pc, #356]	@ (8002848 <main+0x3e8>)
 80026e4:	4855      	ldr	r0, [pc, #340]	@ (800283c <main+0x3dc>)
 80026e6:	f7ff fa51 	bl	8001b8c <LED_SliddingText>
              LED_SliddingText(frame, font, "gracias", 15, 15, red, 0, 1);
 80026ea:	2301      	movs	r3, #1
 80026ec:	9303      	str	r3, [sp, #12]
 80026ee:	2300      	movs	r3, #0
 80026f0:	9302      	str	r3, [sp, #8]
 80026f2:	4a53      	ldr	r2, [pc, #332]	@ (8002840 <main+0x3e0>)
 80026f4:	ab01      	add	r3, sp, #4
 80026f6:	6812      	ldr	r2, [r2, #0]
 80026f8:	4611      	mov	r1, r2
 80026fa:	8019      	strh	r1, [r3, #0]
 80026fc:	3302      	adds	r3, #2
 80026fe:	0c12      	lsrs	r2, r2, #16
 8002700:	701a      	strb	r2, [r3, #0]
 8002702:	230f      	movs	r3, #15
 8002704:	9300      	str	r3, [sp, #0]
 8002706:	230f      	movs	r3, #15
 8002708:	4a50      	ldr	r2, [pc, #320]	@ (800284c <main+0x3ec>)
 800270a:	494f      	ldr	r1, [pc, #316]	@ (8002848 <main+0x3e8>)
 800270c:	484b      	ldr	r0, [pc, #300]	@ (800283c <main+0x3dc>)
 800270e:	f7ff fa3d 	bl	8001b8c <LED_SliddingText>
              LED_SliddingText(frame, font, "muchas", 5, 25, green, 0, -1);
 8002712:	23ff      	movs	r3, #255	@ 0xff
 8002714:	9303      	str	r3, [sp, #12]
 8002716:	2300      	movs	r3, #0
 8002718:	9302      	str	r3, [sp, #8]
 800271a:	4a4d      	ldr	r2, [pc, #308]	@ (8002850 <main+0x3f0>)
 800271c:	ab01      	add	r3, sp, #4
 800271e:	6812      	ldr	r2, [r2, #0]
 8002720:	4611      	mov	r1, r2
 8002722:	8019      	strh	r1, [r3, #0]
 8002724:	3302      	adds	r3, #2
 8002726:	0c12      	lsrs	r2, r2, #16
 8002728:	701a      	strb	r2, [r3, #0]
 800272a:	2319      	movs	r3, #25
 800272c:	9300      	str	r3, [sp, #0]
 800272e:	2305      	movs	r3, #5
 8002730:	4a44      	ldr	r2, [pc, #272]	@ (8002844 <main+0x3e4>)
 8002732:	4945      	ldr	r1, [pc, #276]	@ (8002848 <main+0x3e8>)
 8002734:	4841      	ldr	r0, [pc, #260]	@ (800283c <main+0x3dc>)
 8002736:	f7ff fa29 	bl	8001b8c <LED_SliddingText>
              LED_SliddingText(frame, font, "gracias", 15, 35, green, 0, -1);
 800273a:	23ff      	movs	r3, #255	@ 0xff
 800273c:	9303      	str	r3, [sp, #12]
 800273e:	2300      	movs	r3, #0
 8002740:	9302      	str	r3, [sp, #8]
 8002742:	4a43      	ldr	r2, [pc, #268]	@ (8002850 <main+0x3f0>)
 8002744:	ab01      	add	r3, sp, #4
 8002746:	6812      	ldr	r2, [r2, #0]
 8002748:	4611      	mov	r1, r2
 800274a:	8019      	strh	r1, [r3, #0]
 800274c:	3302      	adds	r3, #2
 800274e:	0c12      	lsrs	r2, r2, #16
 8002750:	701a      	strb	r2, [r3, #0]
 8002752:	2323      	movs	r3, #35	@ 0x23
 8002754:	9300      	str	r3, [sp, #0]
 8002756:	230f      	movs	r3, #15
 8002758:	4a3c      	ldr	r2, [pc, #240]	@ (800284c <main+0x3ec>)
 800275a:	493b      	ldr	r1, [pc, #236]	@ (8002848 <main+0x3e8>)
 800275c:	4837      	ldr	r0, [pc, #220]	@ (800283c <main+0x3dc>)
 800275e:	f7ff fa15 	bl	8001b8c <LED_SliddingText>
              LED_SliddingText(frame, font, "muchas", 5, 45, blue, 0, 1);
 8002762:	2301      	movs	r3, #1
 8002764:	9303      	str	r3, [sp, #12]
 8002766:	2300      	movs	r3, #0
 8002768:	9302      	str	r3, [sp, #8]
 800276a:	4a3a      	ldr	r2, [pc, #232]	@ (8002854 <main+0x3f4>)
 800276c:	ab01      	add	r3, sp, #4
 800276e:	6812      	ldr	r2, [r2, #0]
 8002770:	4611      	mov	r1, r2
 8002772:	8019      	strh	r1, [r3, #0]
 8002774:	3302      	adds	r3, #2
 8002776:	0c12      	lsrs	r2, r2, #16
 8002778:	701a      	strb	r2, [r3, #0]
 800277a:	232d      	movs	r3, #45	@ 0x2d
 800277c:	9300      	str	r3, [sp, #0]
 800277e:	2305      	movs	r3, #5
 8002780:	4a30      	ldr	r2, [pc, #192]	@ (8002844 <main+0x3e4>)
 8002782:	4931      	ldr	r1, [pc, #196]	@ (8002848 <main+0x3e8>)
 8002784:	482d      	ldr	r0, [pc, #180]	@ (800283c <main+0x3dc>)
 8002786:	f7ff fa01 	bl	8001b8c <LED_SliddingText>
              LED_SliddingText(frame, font, "gracias", 15, 55, blue, 0, 1);
 800278a:	2301      	movs	r3, #1
 800278c:	9303      	str	r3, [sp, #12]
 800278e:	2300      	movs	r3, #0
 8002790:	9302      	str	r3, [sp, #8]
 8002792:	4a30      	ldr	r2, [pc, #192]	@ (8002854 <main+0x3f4>)
 8002794:	ab01      	add	r3, sp, #4
 8002796:	6812      	ldr	r2, [r2, #0]
 8002798:	4611      	mov	r1, r2
 800279a:	8019      	strh	r1, [r3, #0]
 800279c:	3302      	adds	r3, #2
 800279e:	0c12      	lsrs	r2, r2, #16
 80027a0:	701a      	strb	r2, [r3, #0]
 80027a2:	2337      	movs	r3, #55	@ 0x37
 80027a4:	9300      	str	r3, [sp, #0]
 80027a6:	230f      	movs	r3, #15
 80027a8:	4a28      	ldr	r2, [pc, #160]	@ (800284c <main+0x3ec>)
 80027aa:	4927      	ldr	r1, [pc, #156]	@ (8002848 <main+0x3e8>)
 80027ac:	4823      	ldr	r0, [pc, #140]	@ (800283c <main+0x3dc>)
 80027ae:	f7ff f9ed 	bl	8001b8c <LED_SliddingText>
              LED_fillBuffer(frame, nextBuffer);
 80027b2:	4b29      	ldr	r3, [pc, #164]	@ (8002858 <main+0x3f8>)
 80027b4:	681b      	ldr	r3, [r3, #0]
 80027b6:	4619      	mov	r1, r3
 80027b8:	4820      	ldr	r0, [pc, #128]	@ (800283c <main+0x3dc>)
 80027ba:	f7fe fbf5 	bl	8000fa8 <LED_fillBuffer>
              break;
 80027be:	e031      	b.n	8002824 <main+0x3c4>
          case falling_sand:
              if(bandera_debugger){
 80027c0:	4b26      	ldr	r3, [pc, #152]	@ (800285c <main+0x3fc>)
 80027c2:	781b      	ldrb	r3, [r3, #0]
 80027c4:	2b00      	cmp	r3, #0
 80027c6:	d00b      	beq.n	80027e0 <main+0x380>
            	  memcpy(frame, frame_img2, WIDTH * HEIGHT * sizeof(RGB_t));
 80027c8:	4a1c      	ldr	r2, [pc, #112]	@ (800283c <main+0x3dc>)
 80027ca:	4b25      	ldr	r3, [pc, #148]	@ (8002860 <main+0x400>)
 80027cc:	4610      	mov	r0, r2
 80027ce:	4619      	mov	r1, r3
 80027d0:	f44f 5340 	mov.w	r3, #12288	@ 0x3000
 80027d4:	461a      	mov	r2, r3
 80027d6:	f001 fc75 	bl	80040c4 <memcpy>
                  bandera_debugger=0;
 80027da:	4b20      	ldr	r3, [pc, #128]	@ (800285c <main+0x3fc>)
 80027dc:	2200      	movs	r2, #0
 80027de:	701a      	strb	r2, [r3, #0]
              }
              LED_rectangle(frame, green,  3 , 3 , 60 ,60);
 80027e0:	491b      	ldr	r1, [pc, #108]	@ (8002850 <main+0x3f0>)
 80027e2:	233c      	movs	r3, #60	@ 0x3c
 80027e4:	9301      	str	r3, [sp, #4]
 80027e6:	233c      	movs	r3, #60	@ 0x3c
 80027e8:	9300      	str	r3, [sp, #0]
 80027ea:	2303      	movs	r3, #3
 80027ec:	2203      	movs	r2, #3
 80027ee:	6809      	ldr	r1, [r1, #0]
 80027f0:	4812      	ldr	r0, [pc, #72]	@ (800283c <main+0x3dc>)
 80027f2:	f7ff f839 	bl	8001868 <LED_rectangle>
              LED_FallingSand(frame);
 80027f6:	4811      	ldr	r0, [pc, #68]	@ (800283c <main+0x3dc>)
 80027f8:	f7ff fa46 	bl	8001c88 <LED_FallingSand>
              LED_fillBuffer(frame, nextBuffer);
 80027fc:	4b16      	ldr	r3, [pc, #88]	@ (8002858 <main+0x3f8>)
 80027fe:	681b      	ldr	r3, [r3, #0]
 8002800:	4619      	mov	r1, r3
 8002802:	480e      	ldr	r0, [pc, #56]	@ (800283c <main+0x3dc>)
 8002804:	f7fe fbd0 	bl	8000fa8 <LED_fillBuffer>
          break;
 8002808:	e00c      	b.n	8002824 <main+0x3c4>

          case video_1:
        	  LED_VideoByFrameChanges(frame, &video);
 800280a:	4916      	ldr	r1, [pc, #88]	@ (8002864 <main+0x404>)
 800280c:	480b      	ldr	r0, [pc, #44]	@ (800283c <main+0x3dc>)
 800280e:	f7ff fded 	bl	80023ec <LED_VideoByFrameChanges>
        	  LED_fillBuffer(frame, nextBuffer);
 8002812:	4b11      	ldr	r3, [pc, #68]	@ (8002858 <main+0x3f8>)
 8002814:	681b      	ldr	r3, [r3, #0]
 8002816:	4619      	mov	r1, r3
 8002818:	4808      	ldr	r0, [pc, #32]	@ (800283c <main+0x3dc>)
 800281a:	f7fe fbc5 	bl	8000fa8 <LED_fillBuffer>
        	  break;
 800281e:	e001      	b.n	8002824 <main+0x3c4>
              break;
 8002820:	bf00      	nop
 8002822:	e7ff      	b.n	8002824 <main+0x3c4>

      }

      while(HAL_GetTick() - start_time < 30); // Capea f=1/30ms=33,33Hz
 8002824:	bf00      	nop
 8002826:	f000 faf7 	bl	8002e18 <HAL_GetTick>
 800282a:	4602      	mov	r2, r0
 800282c:	4b0e      	ldr	r3, [pc, #56]	@ (8002868 <main+0x408>)
 800282e:	681b      	ldr	r3, [r3, #0]
 8002830:	1ad3      	subs	r3, r2, r3
 8002832:	2b1d      	cmp	r3, #29
 8002834:	d9f7      	bls.n	8002826 <main+0x3c6>
      start_time = HAL_GetTick();
 8002836:	e63b      	b.n	80024b0 <main+0x50>
 8002838:	2000b4ac 	.word	0x2000b4ac
 800283c:	2000049c 	.word	0x2000049c
 8002840:	20000000 	.word	0x20000000
 8002844:	08004d94 	.word	0x08004d94
 8002848:	200003b8 	.word	0x200003b8
 800284c:	08004d9c 	.word	0x08004d9c
 8002850:	20000004 	.word	0x20000004
 8002854:	20000008 	.word	0x20000008
 8002858:	2000b554 	.word	0x2000b554
 800285c:	20000424 	.word	0x20000424
 8002860:	080718e0 	.word	0x080718e0
 8002864:	080718d0 	.word	0x080718d0
 8002868:	2000b55c 	.word	0x2000b55c

0800286c <MX_ADC2_Init>:
  * @brief ADC2 Initialization Function
  * @param None
  * @retval None
  */
static void MX_ADC2_Init(void)
{
 800286c:	b580      	push	{r7, lr}
 800286e:	b084      	sub	sp, #16
 8002870:	af00      	add	r7, sp, #0

  /* USER CODE BEGIN ADC2_Init 0 */

  /* USER CODE END ADC2_Init 0 */

  ADC_ChannelConfTypeDef sConfig = {0};
 8002872:	463b      	mov	r3, r7
 8002874:	2200      	movs	r2, #0
 8002876:	601a      	str	r2, [r3, #0]
 8002878:	605a      	str	r2, [r3, #4]
 800287a:	609a      	str	r2, [r3, #8]
 800287c:	60da      	str	r2, [r3, #12]

  /* USER CODE END ADC2_Init 1 */

  /** Configure the global features of the ADC (Clock, Resolution, Data Alignment and number of conversion)
  */
  hadc2.Instance = ADC2;
 800287e:	4b21      	ldr	r3, [pc, #132]	@ (8002904 <MX_ADC2_Init+0x98>)
 8002880:	4a21      	ldr	r2, [pc, #132]	@ (8002908 <MX_ADC2_Init+0x9c>)
 8002882:	601a      	str	r2, [r3, #0]
  hadc2.Init.ClockPrescaler = ADC_CLOCK_SYNC_PCLK_DIV4;
 8002884:	4b1f      	ldr	r3, [pc, #124]	@ (8002904 <MX_ADC2_Init+0x98>)
 8002886:	f44f 3280 	mov.w	r2, #65536	@ 0x10000
 800288a:	605a      	str	r2, [r3, #4]
  hadc2.Init.Resolution = ADC_RESOLUTION_12B;
 800288c:	4b1d      	ldr	r3, [pc, #116]	@ (8002904 <MX_ADC2_Init+0x98>)
 800288e:	2200      	movs	r2, #0
 8002890:	609a      	str	r2, [r3, #8]
  hadc2.Init.ScanConvMode = DISABLE;
 8002892:	4b1c      	ldr	r3, [pc, #112]	@ (8002904 <MX_ADC2_Init+0x98>)
 8002894:	2200      	movs	r2, #0
 8002896:	611a      	str	r2, [r3, #16]
  hadc2.Init.ContinuousConvMode = DISABLE;
 8002898:	4b1a      	ldr	r3, [pc, #104]	@ (8002904 <MX_ADC2_Init+0x98>)
 800289a:	2200      	movs	r2, #0
 800289c:	761a      	strb	r2, [r3, #24]
  hadc2.Init.DiscontinuousConvMode = DISABLE;
 800289e:	4b19      	ldr	r3, [pc, #100]	@ (8002904 <MX_ADC2_Init+0x98>)
 80028a0:	2200      	movs	r2, #0
 80028a2:	f883 2020 	strb.w	r2, [r3, #32]
  hadc2.Init.ExternalTrigConvEdge = ADC_EXTERNALTRIGCONVEDGE_NONE;
 80028a6:	4b17      	ldr	r3, [pc, #92]	@ (8002904 <MX_ADC2_Init+0x98>)
 80028a8:	2200      	movs	r2, #0
 80028aa:	62da      	str	r2, [r3, #44]	@ 0x2c
  hadc2.Init.ExternalTrigConv = ADC_SOFTWARE_START;
 80028ac:	4b15      	ldr	r3, [pc, #84]	@ (8002904 <MX_ADC2_Init+0x98>)
 80028ae:	4a17      	ldr	r2, [pc, #92]	@ (800290c <MX_ADC2_Init+0xa0>)
 80028b0:	629a      	str	r2, [r3, #40]	@ 0x28
  hadc2.Init.DataAlign = ADC_DATAALIGN_RIGHT;
 80028b2:	4b14      	ldr	r3, [pc, #80]	@ (8002904 <MX_ADC2_Init+0x98>)
 80028b4:	2200      	movs	r2, #0
 80028b6:	60da      	str	r2, [r3, #12]
  hadc2.Init.NbrOfConversion = 1;
 80028b8:	4b12      	ldr	r3, [pc, #72]	@ (8002904 <MX_ADC2_Init+0x98>)
 80028ba:	2201      	movs	r2, #1
 80028bc:	61da      	str	r2, [r3, #28]
  hadc2.Init.DMAContinuousRequests = DISABLE;
 80028be:	4b11      	ldr	r3, [pc, #68]	@ (8002904 <MX_ADC2_Init+0x98>)
 80028c0:	2200      	movs	r2, #0
 80028c2:	f883 2030 	strb.w	r2, [r3, #48]	@ 0x30
  hadc2.Init.EOCSelection = ADC_EOC_SINGLE_CONV;
 80028c6:	4b0f      	ldr	r3, [pc, #60]	@ (8002904 <MX_ADC2_Init+0x98>)
 80028c8:	2201      	movs	r2, #1
 80028ca:	615a      	str	r2, [r3, #20]
  if (HAL_ADC_Init(&hadc2) != HAL_OK)
 80028cc:	480d      	ldr	r0, [pc, #52]	@ (8002904 <MX_ADC2_Init+0x98>)
 80028ce:	f000 fad3 	bl	8002e78 <HAL_ADC_Init>
 80028d2:	4603      	mov	r3, r0
 80028d4:	2b00      	cmp	r3, #0
 80028d6:	d001      	beq.n	80028dc <MX_ADC2_Init+0x70>
  {
    Error_Handler();
 80028d8:	f000 f874 	bl	80029c4 <Error_Handler>
  }

  /** Configure for the selected ADC regular channel its corresponding rank in the sequencer and its sample time.
  */
  sConfig.Channel = ADC_CHANNEL_4;
 80028dc:	2304      	movs	r3, #4
 80028de:	603b      	str	r3, [r7, #0]
  sConfig.Rank = 1;
 80028e0:	2301      	movs	r3, #1
 80028e2:	607b      	str	r3, [r7, #4]
  sConfig.SamplingTime = ADC_SAMPLETIME_3CYCLES;
 80028e4:	2300      	movs	r3, #0
 80028e6:	60bb      	str	r3, [r7, #8]
  if (HAL_ADC_ConfigChannel(&hadc2, &sConfig) != HAL_OK)
 80028e8:	463b      	mov	r3, r7
 80028ea:	4619      	mov	r1, r3
 80028ec:	4805      	ldr	r0, [pc, #20]	@ (8002904 <MX_ADC2_Init+0x98>)
 80028ee:	f000 fc71 	bl	80031d4 <HAL_ADC_ConfigChannel>
 80028f2:	4603      	mov	r3, r0
 80028f4:	2b00      	cmp	r3, #0
 80028f6:	d001      	beq.n	80028fc <MX_ADC2_Init+0x90>
  {
    Error_Handler();
 80028f8:	f000 f864 	bl	80029c4 <Error_Handler>
  }
  /* USER CODE BEGIN ADC2_Init 2 */

  /* USER CODE END ADC2_Init 2 */

}
 80028fc:	bf00      	nop
 80028fe:	3710      	adds	r7, #16
 8002900:	46bd      	mov	sp, r7
 8002902:	bd80      	pop	{r7, pc}
 8002904:	2000b4b0 	.word	0x2000b4b0
 8002908:	40012100 	.word	0x40012100
 800290c:	0f000001 	.word	0x0f000001

08002910 <MX_TIM6_Init>:
  * @brief TIM6 Initialization Function
  * @param None
  * @retval None
  */
static void MX_TIM6_Init(void)
{
 8002910:	b580      	push	{r7, lr}
 8002912:	b082      	sub	sp, #8
 8002914:	af00      	add	r7, sp, #0

  /* USER CODE BEGIN TIM6_Init 0 */

  /* USER CODE END TIM6_Init 0 */

  TIM_MasterConfigTypeDef sMasterConfig = {0};
 8002916:	463b      	mov	r3, r7
 8002918:	2200      	movs	r2, #0
 800291a:	601a      	str	r2, [r3, #0]
 800291c:	605a      	str	r2, [r3, #4]

  /* USER CODE BEGIN TIM6_Init 1 */

  /* USER CODE END TIM6_Init 1 */
  htim6.Instance = TIM6;
 800291e:	4b15      	ldr	r3, [pc, #84]	@ (8002974 <MX_TIM6_Init+0x64>)
 8002920:	4a15      	ldr	r2, [pc, #84]	@ (8002978 <MX_TIM6_Init+0x68>)
 8002922:	601a      	str	r2, [r3, #0]
  htim6.Init.Prescaler = 8399;
 8002924:	4b13      	ldr	r3, [pc, #76]	@ (8002974 <MX_TIM6_Init+0x64>)
 8002926:	f242 02cf 	movw	r2, #8399	@ 0x20cf
 800292a:	605a      	str	r2, [r3, #4]
  htim6.Init.CounterMode = TIM_COUNTERMODE_UP;
 800292c:	4b11      	ldr	r3, [pc, #68]	@ (8002974 <MX_TIM6_Init+0x64>)
 800292e:	2200      	movs	r2, #0
 8002930:	609a      	str	r2, [r3, #8]
  htim6.Init.Period = 1000;
 8002932:	4b10      	ldr	r3, [pc, #64]	@ (8002974 <MX_TIM6_Init+0x64>)
 8002934:	f44f 727a 	mov.w	r2, #1000	@ 0x3e8
 8002938:	60da      	str	r2, [r3, #12]
  htim6.Init.AutoReloadPreload = TIM_AUTORELOAD_PRELOAD_DISABLE;
 800293a:	4b0e      	ldr	r3, [pc, #56]	@ (8002974 <MX_TIM6_Init+0x64>)
 800293c:	2200      	movs	r2, #0
 800293e:	619a      	str	r2, [r3, #24]
  if (HAL_TIM_Base_Init(&htim6) != HAL_OK)
 8002940:	480c      	ldr	r0, [pc, #48]	@ (8002974 <MX_TIM6_Init+0x64>)
 8002942:	f001 f8d5 	bl	8003af0 <HAL_TIM_Base_Init>
 8002946:	4603      	mov	r3, r0
 8002948:	2b00      	cmp	r3, #0
 800294a:	d001      	beq.n	8002950 <MX_TIM6_Init+0x40>
  {
    Error_Handler();
 800294c:	f000 f83a 	bl	80029c4 <Error_Handler>
  }
  sMasterConfig.MasterOutputTrigger = TIM_TRGO_RESET;
 8002950:	2300      	movs	r3, #0
 8002952:	603b      	str	r3, [r7, #0]
  sMasterConfig.MasterSlaveMode = TIM_MASTERSLAVEMODE_DISABLE;
 8002954:	2300      	movs	r3, #0
 8002956:	607b      	str	r3, [r7, #4]
  if (HAL_TIMEx_MasterConfigSynchronization(&htim6, &sMasterConfig) != HAL_OK)
 8002958:	463b      	mov	r3, r7
 800295a:	4619      	mov	r1, r3
 800295c:	4805      	ldr	r0, [pc, #20]	@ (8002974 <MX_TIM6_Init+0x64>)
 800295e:	f001 fa33 	bl	8003dc8 <HAL_TIMEx_MasterConfigSynchronization>
 8002962:	4603      	mov	r3, r0
 8002964:	2b00      	cmp	r3, #0
 8002966:	d001      	beq.n	800296c <MX_TIM6_Init+0x5c>
  {
    Error_Handler();
 8002968:	f000 f82c 	bl	80029c4 <Error_Handler>
  }
  /* USER CODE BEGIN TIM6_Init 2 */

  /* USER CODE END TIM6_Init 2 */

}
 800296c:	bf00      	nop
 800296e:	3708      	adds	r7, #8
 8002970:	46bd      	mov	sp, r7
 8002972:	bd80      	pop	{r7, pc}
 8002974:	2000b4f8 	.word	0x2000b4f8
 8002978:	40001000 	.word	0x40001000

0800297c <HAL_GPIO_EXTI_Callback>:
/* USER CODE BEGIN MX_GPIO_Init_2 */
/* USER CODE END MX_GPIO_Init_2 */
}

/* USER CODE BEGIN 4 */
void HAL_GPIO_EXTI_Callback(uint16_t GPIO_Pin){
 800297c:	b480      	push	{r7}
 800297e:	b083      	sub	sp, #12
 8002980:	af00      	add	r7, sp, #0
 8002982:	4603      	mov	r3, r0
 8002984:	80fb      	strh	r3, [r7, #6]
	if(GPIO_Pin==BOTON_Pin){
 8002986:	88fb      	ldrh	r3, [r7, #6]
 8002988:	f5b3 5f00 	cmp.w	r3, #8192	@ 0x2000
 800298c:	d10f      	bne.n	80029ae <HAL_GPIO_EXTI_Callback+0x32>
		programa_actual = (programa_actual +1)%total_programs;
 800298e:	4b0b      	ldr	r3, [pc, #44]	@ (80029bc <HAL_GPIO_EXTI_Callback+0x40>)
 8002990:	781b      	ldrb	r3, [r3, #0]
 8002992:	1c5a      	adds	r2, r3, #1
 8002994:	4b0a      	ldr	r3, [pc, #40]	@ (80029c0 <HAL_GPIO_EXTI_Callback+0x44>)
 8002996:	fb83 1302 	smull	r1, r3, r3, r2
 800299a:	1059      	asrs	r1, r3, #1
 800299c:	17d3      	asrs	r3, r2, #31
 800299e:	1ac9      	subs	r1, r1, r3
 80029a0:	460b      	mov	r3, r1
 80029a2:	00db      	lsls	r3, r3, #3
 80029a4:	440b      	add	r3, r1
 80029a6:	1ad1      	subs	r1, r2, r3
 80029a8:	b2ca      	uxtb	r2, r1
 80029aa:	4b04      	ldr	r3, [pc, #16]	@ (80029bc <HAL_GPIO_EXTI_Callback+0x40>)
 80029ac:	701a      	strb	r2, [r3, #0]
	}

}
 80029ae:	bf00      	nop
 80029b0:	370c      	adds	r7, #12
 80029b2:	46bd      	mov	sp, r7
 80029b4:	f85d 7b04 	ldr.w	r7, [sp], #4
 80029b8:	4770      	bx	lr
 80029ba:	bf00      	nop
 80029bc:	20000425 	.word	0x20000425
 80029c0:	38e38e39 	.word	0x38e38e39

080029c4 <Error_Handler>:
/**
  * @brief  This function is executed in case of error occurrence.
  * @retval None
  */
void Error_Handler(void)
{
 80029c4:	b480      	push	{r7}
 80029c6:	af00      	add	r7, sp, #0
  \details Disables IRQ interrupts by setting special-purpose register PRIMASK.
           Can only be executed in Privileged modes.
 */
__STATIC_FORCEINLINE void __disable_irq(void)
{
  __ASM volatile ("cpsid i" : : : "memory");
 80029c8:	b672      	cpsid	i
}
 80029ca:	bf00      	nop
  /* USER CODE BEGIN Error_Handler_Debug */
  /* User can add his own implementation to report the HAL error return state */
  __disable_irq();
  while (1)
 80029cc:	bf00      	nop
 80029ce:	e7fd      	b.n	80029cc <Error_Handler+0x8>

080029d0 <HAL_ADC_MspInit>:
* This function configures the hardware resources used in this example
* @param hadc: ADC handle pointer
* @retval None
*/
void HAL_ADC_MspInit(ADC_HandleTypeDef* hadc)
{
 80029d0:	b580      	push	{r7, lr}
 80029d2:	b08a      	sub	sp, #40	@ 0x28
 80029d4:	af00      	add	r7, sp, #0
 80029d6:	6078      	str	r0, [r7, #4]
  GPIO_InitTypeDef GPIO_InitStruct = {0};
 80029d8:	f107 0314 	add.w	r3, r7, #20
 80029dc:	2200      	movs	r2, #0
 80029de:	601a      	str	r2, [r3, #0]
 80029e0:	605a      	str	r2, [r3, #4]
 80029e2:	609a      	str	r2, [r3, #8]
 80029e4:	60da      	str	r2, [r3, #12]
 80029e6:	611a      	str	r2, [r3, #16]
  if(hadc->Instance==ADC2)
 80029e8:	687b      	ldr	r3, [r7, #4]
 80029ea:	681b      	ldr	r3, [r3, #0]
 80029ec:	4a17      	ldr	r2, [pc, #92]	@ (8002a4c <HAL_ADC_MspInit+0x7c>)
 80029ee:	4293      	cmp	r3, r2
 80029f0:	d127      	bne.n	8002a42 <HAL_ADC_MspInit+0x72>
  {
  /* USER CODE BEGIN ADC2_MspInit 0 */

  /* USER CODE END ADC2_MspInit 0 */
    /* Peripheral clock enable */
    __HAL_RCC_ADC2_CLK_ENABLE();
 80029f2:	2300      	movs	r3, #0
 80029f4:	613b      	str	r3, [r7, #16]
 80029f6:	4b16      	ldr	r3, [pc, #88]	@ (8002a50 <HAL_ADC_MspInit+0x80>)
 80029f8:	6c5b      	ldr	r3, [r3, #68]	@ 0x44
 80029fa:	4a15      	ldr	r2, [pc, #84]	@ (8002a50 <HAL_ADC_MspInit+0x80>)
 80029fc:	f443 7300 	orr.w	r3, r3, #512	@ 0x200
 8002a00:	6453      	str	r3, [r2, #68]	@ 0x44
 8002a02:	4b13      	ldr	r3, [pc, #76]	@ (8002a50 <HAL_ADC_MspInit+0x80>)
 8002a04:	6c5b      	ldr	r3, [r3, #68]	@ 0x44
 8002a06:	f403 7300 	and.w	r3, r3, #512	@ 0x200
 8002a0a:	613b      	str	r3, [r7, #16]
 8002a0c:	693b      	ldr	r3, [r7, #16]

    __HAL_RCC_GPIOA_CLK_ENABLE();
 8002a0e:	2300      	movs	r3, #0
 8002a10:	60fb      	str	r3, [r7, #12]
 8002a12:	4b0f      	ldr	r3, [pc, #60]	@ (8002a50 <HAL_ADC_MspInit+0x80>)
 8002a14:	6b1b      	ldr	r3, [r3, #48]	@ 0x30
 8002a16:	4a0e      	ldr	r2, [pc, #56]	@ (8002a50 <HAL_ADC_MspInit+0x80>)
 8002a18:	f043 0301 	orr.w	r3, r3, #1
 8002a1c:	6313      	str	r3, [r2, #48]	@ 0x30
 8002a1e:	4b0c      	ldr	r3, [pc, #48]	@ (8002a50 <HAL_ADC_MspInit+0x80>)
 8002a20:	6b1b      	ldr	r3, [r3, #48]	@ 0x30
 8002a22:	f003 0301 	and.w	r3, r3, #1
 8002a26:	60fb      	str	r3, [r7, #12]
 8002a28:	68fb      	ldr	r3, [r7, #12]
    /**ADC2 GPIO Configuration
    PA4     ------> ADC2_IN4
    */
    GPIO_InitStruct.Pin = GPIO_PIN_4;
 8002a2a:	2310      	movs	r3, #16
 8002a2c:	617b      	str	r3, [r7, #20]
    GPIO_InitStruct.Mode = GPIO_MODE_ANALOG;
 8002a2e:	2303      	movs	r3, #3
 8002a30:	61bb      	str	r3, [r7, #24]
    GPIO_InitStruct.Pull = GPIO_NOPULL;
 8002a32:	2300      	movs	r3, #0
 8002a34:	61fb      	str	r3, [r7, #28]
    HAL_GPIO_Init(GPIOA, &GPIO_InitStruct);
 8002a36:	f107 0314 	add.w	r3, r7, #20
 8002a3a:	4619      	mov	r1, r3
 8002a3c:	4805      	ldr	r0, [pc, #20]	@ (8002a54 <HAL_ADC_MspInit+0x84>)
 8002a3e:	f000 feab 	bl	8003798 <HAL_GPIO_Init>

  /* USER CODE END ADC2_MspInit 1 */

  }

}
 8002a42:	bf00      	nop
 8002a44:	3728      	adds	r7, #40	@ 0x28
 8002a46:	46bd      	mov	sp, r7
 8002a48:	bd80      	pop	{r7, pc}
 8002a4a:	bf00      	nop
 8002a4c:	40012100 	.word	0x40012100
 8002a50:	40023800 	.word	0x40023800
 8002a54:	40020000 	.word	0x40020000

08002a58 <HAL_TIM_Base_MspInit>:
* This function configures the hardware resources used in this example
* @param htim_base: TIM_Base handle pointer
* @retval None
*/
void HAL_TIM_Base_MspInit(TIM_HandleTypeDef* htim_base)
{
 8002a58:	b480      	push	{r7}
 8002a5a:	b085      	sub	sp, #20
 8002a5c:	af00      	add	r7, sp, #0
 8002a5e:	6078      	str	r0, [r7, #4]
  if(htim_base->Instance==TIM6)
 8002a60:	687b      	ldr	r3, [r7, #4]
 8002a62:	681b      	ldr	r3, [r3, #0]
 8002a64:	4a0b      	ldr	r2, [pc, #44]	@ (8002a94 <HAL_TIM_Base_MspInit+0x3c>)
 8002a66:	4293      	cmp	r3, r2
 8002a68:	d10d      	bne.n	8002a86 <HAL_TIM_Base_MspInit+0x2e>
  {
  /* USER CODE BEGIN TIM6_MspInit 0 */

  /* USER CODE END TIM6_MspInit 0 */
    /* Peripheral clock enable */
    __HAL_RCC_TIM6_CLK_ENABLE();
 8002a6a:	2300      	movs	r3, #0
 8002a6c:	60fb      	str	r3, [r7, #12]
 8002a6e:	4b0a      	ldr	r3, [pc, #40]	@ (8002a98 <HAL_TIM_Base_MspInit+0x40>)
 8002a70:	6c1b      	ldr	r3, [r3, #64]	@ 0x40
 8002a72:	4a09      	ldr	r2, [pc, #36]	@ (8002a98 <HAL_TIM_Base_MspInit+0x40>)
 8002a74:	f043 0310 	orr.w	r3, r3, #16
 8002a78:	6413      	str	r3, [r2, #64]	@ 0x40
 8002a7a:	4b07      	ldr	r3, [pc, #28]	@ (8002a98 <HAL_TIM_Base_MspInit+0x40>)
 8002a7c:	6c1b      	ldr	r3, [r3, #64]	@ 0x40
 8002a7e:	f003 0310 	and.w	r3, r3, #16
 8002a82:	60fb      	str	r3, [r7, #12]
 8002a84:	68fb      	ldr	r3, [r7, #12]

  /* USER CODE END TIM6_MspInit 1 */

  }

}
 8002a86:	bf00      	nop
 8002a88:	3714      	adds	r7, #20
 8002a8a:	46bd      	mov	sp, r7
 8002a8c:	f85d 7b04 	ldr.w	r7, [sp], #4
 8002a90:	4770      	bx	lr
 8002a92:	bf00      	nop
 8002a94:	40001000 	.word	0x40001000
 8002a98:	40023800 	.word	0x40023800

08002a9c <NMI_Handler>:
/******************************************************************************/
/**
  * @brief This function handles Non maskable interrupt.
  */
void NMI_Handler(void)
{
 8002a9c:	b480      	push	{r7}
 8002a9e:	af00      	add	r7, sp, #0
  /* USER CODE BEGIN NonMaskableInt_IRQn 0 */

  /* USER CODE END NonMaskableInt_IRQn 0 */
  /* USER CODE BEGIN NonMaskableInt_IRQn 1 */
   while (1)
 8002aa0:	bf00      	nop
 8002aa2:	e7fd      	b.n	8002aa0 <NMI_Handler+0x4>

08002aa4 <HardFault_Handler>:

/**
  * @brief This function handles Hard fault interrupt.
  */
void HardFault_Handler(void)
{
 8002aa4:	b480      	push	{r7}
 8002aa6:	af00      	add	r7, sp, #0
  /* USER CODE BEGIN HardFault_IRQn 0 */

  /* USER CODE END HardFault_IRQn 0 */
  while (1)
 8002aa8:	bf00      	nop
 8002aaa:	e7fd      	b.n	8002aa8 <HardFault_Handler+0x4>

08002aac <MemManage_Handler>:

/**
  * @brief This function handles Memory management fault.
  */
void MemManage_Handler(void)
{
 8002aac:	b480      	push	{r7}
 8002aae:	af00      	add	r7, sp, #0
  /* USER CODE BEGIN MemoryManagement_IRQn 0 */

  /* USER CODE END MemoryManagement_IRQn 0 */
  while (1)
 8002ab0:	bf00      	nop
 8002ab2:	e7fd      	b.n	8002ab0 <MemManage_Handler+0x4>

08002ab4 <BusFault_Handler>:

/**
  * @brief This function handles Pre-fetch fault, memory access fault.
  */
void BusFault_Handler(void)
{
 8002ab4:	b480      	push	{r7}
 8002ab6:	af00      	add	r7, sp, #0
  /* USER CODE BEGIN BusFault_IRQn 0 */

  /* USER CODE END BusFault_IRQn 0 */
  while (1)
 8002ab8:	bf00      	nop
 8002aba:	e7fd      	b.n	8002ab8 <BusFault_Handler+0x4>

08002abc <UsageFault_Handler>:

/**
  * @brief This function handles Undefined instruction or illegal state.
  */
void UsageFault_Handler(void)
{
 8002abc:	b480      	push	{r7}
 8002abe:	af00      	add	r7, sp, #0
  /* USER CODE BEGIN UsageFault_IRQn 0 */

  /* USER CODE END UsageFault_IRQn 0 */
  while (1)
 8002ac0:	bf00      	nop
 8002ac2:	e7fd      	b.n	8002ac0 <UsageFault_Handler+0x4>

08002ac4 <SVC_Handler>:

/**
  * @brief This function handles System service call via SWI instruction.
  */
void SVC_Handler(void)
{
 8002ac4:	b480      	push	{r7}
 8002ac6:	af00      	add	r7, sp, #0

  /* USER CODE END SVCall_IRQn 0 */
  /* USER CODE BEGIN SVCall_IRQn 1 */

  /* USER CODE END SVCall_IRQn 1 */
}
 8002ac8:	bf00      	nop
 8002aca:	46bd      	mov	sp, r7
 8002acc:	f85d 7b04 	ldr.w	r7, [sp], #4
 8002ad0:	4770      	bx	lr

08002ad2 <DebugMon_Handler>:

/**
  * @brief This function handles Debug monitor.
  */
void DebugMon_Handler(void)
{
 8002ad2:	b480      	push	{r7}
 8002ad4:	af00      	add	r7, sp, #0

  /* USER CODE END DebugMonitor_IRQn 0 */
  /* USER CODE BEGIN DebugMonitor_IRQn 1 */

  /* USER CODE END DebugMonitor_IRQn 1 */
}
 8002ad6:	bf00      	nop
 8002ad8:	46bd      	mov	sp, r7
 8002ada:	f85d 7b04 	ldr.w	r7, [sp], #4
 8002ade:	4770      	bx	lr

08002ae0 <PendSV_Handler>:

/**
  * @brief This function handles Pendable request for system service.
  */
void PendSV_Handler(void)
{
 8002ae0:	b480      	push	{r7}
 8002ae2:	af00      	add	r7, sp, #0

  /* USER CODE END PendSV_IRQn 0 */
  /* USER CODE BEGIN PendSV_IRQn 1 */

  /* USER CODE END PendSV_IRQn 1 */
}
 8002ae4:	bf00      	nop
 8002ae6:	46bd      	mov	sp, r7
 8002ae8:	f85d 7b04 	ldr.w	r7, [sp], #4
 8002aec:	4770      	bx	lr

08002aee <SysTick_Handler>:

/**
  * @brief This function handles System tick timer.
  */
void SysTick_Handler(void)
{
 8002aee:	b580      	push	{r7, lr}
 8002af0:	af00      	add	r7, sp, #0
  /* USER CODE BEGIN SysTick_IRQn 0 */

  /* USER CODE END SysTick_IRQn 0 */
  HAL_IncTick();
 8002af2:	f000 f97d 	bl	8002df0 <HAL_IncTick>
  /* USER CODE BEGIN SysTick_IRQn 1 */

  /* USER CODE END SysTick_IRQn 1 */
}
 8002af6:	bf00      	nop
 8002af8:	bd80      	pop	{r7, pc}

08002afa <EXTI15_10_IRQHandler>:

/**
  * @brief This function handles EXTI line[15:10] interrupts.
  */
void EXTI15_10_IRQHandler(void)
{
 8002afa:	b580      	push	{r7, lr}
 8002afc:	af00      	add	r7, sp, #0
  /* USER CODE BEGIN EXTI15_10_IRQn 0 */

  /* USER CODE END EXTI15_10_IRQn 0 */
  HAL_GPIO_EXTI_IRQHandler(BOTON_Pin);
 8002afe:	f44f 5000 	mov.w	r0, #8192	@ 0x2000
 8002b02:	f000 ffdd 	bl	8003ac0 <HAL_GPIO_EXTI_IRQHandler>
  /* USER CODE BEGIN EXTI15_10_IRQn 1 */

  /* USER CODE END EXTI15_10_IRQn 1 */
}
 8002b06:	bf00      	nop
 8002b08:	bd80      	pop	{r7, pc}
	...

08002b0c <_sbrk>:
 *
 * @param incr Memory size
 * @return Pointer to allocated memory
 */
void *_sbrk(ptrdiff_t incr)
{
 8002b0c:	b580      	push	{r7, lr}
 8002b0e:	b086      	sub	sp, #24
 8002b10:	af00      	add	r7, sp, #0
 8002b12:	6078      	str	r0, [r7, #4]
  extern uint8_t _end; /* Symbol defined in the linker script */
  extern uint8_t _estack; /* Symbol defined in the linker script */
  extern uint32_t _Min_Stack_Size; /* Symbol defined in the linker script */
  const uint32_t stack_limit = (uint32_t)&_estack - (uint32_t)&_Min_Stack_Size;
 8002b14:	4a14      	ldr	r2, [pc, #80]	@ (8002b68 <_sbrk+0x5c>)
 8002b16:	4b15      	ldr	r3, [pc, #84]	@ (8002b6c <_sbrk+0x60>)
 8002b18:	1ad3      	subs	r3, r2, r3
 8002b1a:	617b      	str	r3, [r7, #20]
  const uint8_t *max_heap = (uint8_t *)stack_limit;
 8002b1c:	697b      	ldr	r3, [r7, #20]
 8002b1e:	613b      	str	r3, [r7, #16]
  uint8_t *prev_heap_end;

  /* Initialize heap end at first call */
  if (NULL == __sbrk_heap_end)
 8002b20:	4b13      	ldr	r3, [pc, #76]	@ (8002b70 <_sbrk+0x64>)
 8002b22:	681b      	ldr	r3, [r3, #0]
 8002b24:	2b00      	cmp	r3, #0
 8002b26:	d102      	bne.n	8002b2e <_sbrk+0x22>
  {
    __sbrk_heap_end = &_end;
 8002b28:	4b11      	ldr	r3, [pc, #68]	@ (8002b70 <_sbrk+0x64>)
 8002b2a:	4a12      	ldr	r2, [pc, #72]	@ (8002b74 <_sbrk+0x68>)
 8002b2c:	601a      	str	r2, [r3, #0]
  }

  /* Protect heap from growing into the reserved MSP stack */
  if (__sbrk_heap_end + incr > max_heap)
 8002b2e:	4b10      	ldr	r3, [pc, #64]	@ (8002b70 <_sbrk+0x64>)
 8002b30:	681a      	ldr	r2, [r3, #0]
 8002b32:	687b      	ldr	r3, [r7, #4]
 8002b34:	4413      	add	r3, r2
 8002b36:	693a      	ldr	r2, [r7, #16]
 8002b38:	429a      	cmp	r2, r3
 8002b3a:	d207      	bcs.n	8002b4c <_sbrk+0x40>
  {
    errno = ENOMEM;
 8002b3c:	f001 fa96 	bl	800406c <__errno>
 8002b40:	4603      	mov	r3, r0
 8002b42:	220c      	movs	r2, #12
 8002b44:	601a      	str	r2, [r3, #0]
    return (void *)-1;
 8002b46:	f04f 33ff 	mov.w	r3, #4294967295	@ 0xffffffff
 8002b4a:	e009      	b.n	8002b60 <_sbrk+0x54>
  }

  prev_heap_end = __sbrk_heap_end;
 8002b4c:	4b08      	ldr	r3, [pc, #32]	@ (8002b70 <_sbrk+0x64>)
 8002b4e:	681b      	ldr	r3, [r3, #0]
 8002b50:	60fb      	str	r3, [r7, #12]
  __sbrk_heap_end += incr;
 8002b52:	4b07      	ldr	r3, [pc, #28]	@ (8002b70 <_sbrk+0x64>)
 8002b54:	681a      	ldr	r2, [r3, #0]
 8002b56:	687b      	ldr	r3, [r7, #4]
 8002b58:	4413      	add	r3, r2
 8002b5a:	4a05      	ldr	r2, [pc, #20]	@ (8002b70 <_sbrk+0x64>)
 8002b5c:	6013      	str	r3, [r2, #0]

  return (void *)prev_heap_end;
 8002b5e:	68fb      	ldr	r3, [r7, #12]
}
 8002b60:	4618      	mov	r0, r3
 8002b62:	3718      	adds	r7, #24
 8002b64:	46bd      	mov	sp, r7
 8002b66:	bd80      	pop	{r7, pc}
 8002b68:	20020000 	.word	0x20020000
 8002b6c:	00000400 	.word	0x00000400
 8002b70:	2000b560 	.word	0x2000b560
 8002b74:	2000b6b0 	.word	0x2000b6b0

08002b78 <SystemInit>:
  *         configuration.
  * @param  None
  * @retval None
  */
void SystemInit(void)
{
 8002b78:	b480      	push	{r7}
 8002b7a:	af00      	add	r7, sp, #0
  /* FPU settings ------------------------------------------------------------*/
  #if (__FPU_PRESENT == 1) && (__FPU_USED == 1)
    SCB->CPACR |= ((3UL << 10*2)|(3UL << 11*2));  /* set CP10 and CP11 Full Access */
 8002b7c:	4b06      	ldr	r3, [pc, #24]	@ (8002b98 <SystemInit+0x20>)
 8002b7e:	f8d3 3088 	ldr.w	r3, [r3, #136]	@ 0x88
 8002b82:	4a05      	ldr	r2, [pc, #20]	@ (8002b98 <SystemInit+0x20>)
 8002b84:	f443 0370 	orr.w	r3, r3, #15728640	@ 0xf00000
 8002b88:	f8c2 3088 	str.w	r3, [r2, #136]	@ 0x88

  /* Configure the Vector Table location -------------------------------------*/
#if defined(USER_VECT_TAB_ADDRESS)
  SCB->VTOR = VECT_TAB_BASE_ADDRESS | VECT_TAB_OFFSET; /* Vector Table Relocation in Internal SRAM */
#endif /* USER_VECT_TAB_ADDRESS */
}
 8002b8c:	bf00      	nop
 8002b8e:	46bd      	mov	sp, r7
 8002b90:	f85d 7b04 	ldr.w	r7, [sp], #4
 8002b94:	4770      	bx	lr
 8002b96:	bf00      	nop
 8002b98:	e000ed00 	.word	0xe000ed00

08002b9c <SystemCoreClockUpdate>:
  *     
  * @param  None
  * @retval None
  */
void SystemCoreClockUpdate(void)
{
 8002b9c:	b480      	push	{r7}
 8002b9e:	b087      	sub	sp, #28
 8002ba0:	af00      	add	r7, sp, #0
  uint32_t tmp = 0, pllvco = 0, pllp = 2, pllsource = 0, pllm = 2;
 8002ba2:	2300      	movs	r3, #0
 8002ba4:	613b      	str	r3, [r7, #16]
 8002ba6:	2300      	movs	r3, #0
 8002ba8:	617b      	str	r3, [r7, #20]
 8002baa:	2302      	movs	r3, #2
 8002bac:	60fb      	str	r3, [r7, #12]
 8002bae:	2300      	movs	r3, #0
 8002bb0:	60bb      	str	r3, [r7, #8]
 8002bb2:	2302      	movs	r3, #2
 8002bb4:	607b      	str	r3, [r7, #4]
  
  /* Get SYSCLK source -------------------------------------------------------*/
  tmp = RCC->CFGR & RCC_CFGR_SWS;
 8002bb6:	4b34      	ldr	r3, [pc, #208]	@ (8002c88 <SystemCoreClockUpdate+0xec>)
 8002bb8:	689b      	ldr	r3, [r3, #8]
 8002bba:	f003 030c 	and.w	r3, r3, #12
 8002bbe:	613b      	str	r3, [r7, #16]

  switch (tmp)
 8002bc0:	693b      	ldr	r3, [r7, #16]
 8002bc2:	2b08      	cmp	r3, #8
 8002bc4:	d011      	beq.n	8002bea <SystemCoreClockUpdate+0x4e>
 8002bc6:	693b      	ldr	r3, [r7, #16]
 8002bc8:	2b08      	cmp	r3, #8
 8002bca:	d844      	bhi.n	8002c56 <SystemCoreClockUpdate+0xba>
 8002bcc:	693b      	ldr	r3, [r7, #16]
 8002bce:	2b00      	cmp	r3, #0
 8002bd0:	d003      	beq.n	8002bda <SystemCoreClockUpdate+0x3e>
 8002bd2:	693b      	ldr	r3, [r7, #16]
 8002bd4:	2b04      	cmp	r3, #4
 8002bd6:	d004      	beq.n	8002be2 <SystemCoreClockUpdate+0x46>
 8002bd8:	e03d      	b.n	8002c56 <SystemCoreClockUpdate+0xba>
  {
    case 0x00:  /* HSI used as system clock source */
      SystemCoreClock = HSI_VALUE;
 8002bda:	4b2c      	ldr	r3, [pc, #176]	@ (8002c8c <SystemCoreClockUpdate+0xf0>)
 8002bdc:	4a2c      	ldr	r2, [pc, #176]	@ (8002c90 <SystemCoreClockUpdate+0xf4>)
 8002bde:	601a      	str	r2, [r3, #0]
      break;
 8002be0:	e03d      	b.n	8002c5e <SystemCoreClockUpdate+0xc2>
    case 0x04:  /* HSE used as system clock source */
      SystemCoreClock = HSE_VALUE;
 8002be2:	4b2a      	ldr	r3, [pc, #168]	@ (8002c8c <SystemCoreClockUpdate+0xf0>)
 8002be4:	4a2b      	ldr	r2, [pc, #172]	@ (8002c94 <SystemCoreClockUpdate+0xf8>)
 8002be6:	601a      	str	r2, [r3, #0]
      break;
 8002be8:	e039      	b.n	8002c5e <SystemCoreClockUpdate+0xc2>
    case 0x08:  /* PLL used as system clock source */

      /* PLL_VCO = (HSE_VALUE or HSI_VALUE / PLL_M) * PLL_N
         SYSCLK = PLL_VCO / PLL_P
         */    
      pllsource = (RCC->PLLCFGR & RCC_PLLCFGR_PLLSRC) >> 22;
 8002bea:	4b27      	ldr	r3, [pc, #156]	@ (8002c88 <SystemCoreClockUpdate+0xec>)
 8002bec:	685b      	ldr	r3, [r3, #4]
 8002bee:	0d9b      	lsrs	r3, r3, #22
 8002bf0:	f003 0301 	and.w	r3, r3, #1
 8002bf4:	60bb      	str	r3, [r7, #8]
      pllm = RCC->PLLCFGR & RCC_PLLCFGR_PLLM;
 8002bf6:	4b24      	ldr	r3, [pc, #144]	@ (8002c88 <SystemCoreClockUpdate+0xec>)
 8002bf8:	685b      	ldr	r3, [r3, #4]
 8002bfa:	f003 033f 	and.w	r3, r3, #63	@ 0x3f
 8002bfe:	607b      	str	r3, [r7, #4]
      
      if (pllsource != 0)
 8002c00:	68bb      	ldr	r3, [r7, #8]
 8002c02:	2b00      	cmp	r3, #0
 8002c04:	d00c      	beq.n	8002c20 <SystemCoreClockUpdate+0x84>
      {
        /* HSE used as PLL clock source */
        pllvco = (HSE_VALUE / pllm) * ((RCC->PLLCFGR & RCC_PLLCFGR_PLLN) >> 6);
 8002c06:	4a23      	ldr	r2, [pc, #140]	@ (8002c94 <SystemCoreClockUpdate+0xf8>)
 8002c08:	687b      	ldr	r3, [r7, #4]
 8002c0a:	fbb2 f3f3 	udiv	r3, r2, r3
 8002c0e:	4a1e      	ldr	r2, [pc, #120]	@ (8002c88 <SystemCoreClockUpdate+0xec>)
 8002c10:	6852      	ldr	r2, [r2, #4]
 8002c12:	0992      	lsrs	r2, r2, #6
 8002c14:	f3c2 0208 	ubfx	r2, r2, #0, #9
 8002c18:	fb02 f303 	mul.w	r3, r2, r3
 8002c1c:	617b      	str	r3, [r7, #20]
 8002c1e:	e00b      	b.n	8002c38 <SystemCoreClockUpdate+0x9c>
      }
      else
      {
        /* HSI used as PLL clock source */
        pllvco = (HSI_VALUE / pllm) * ((RCC->PLLCFGR & RCC_PLLCFGR_PLLN) >> 6);
 8002c20:	4a1b      	ldr	r2, [pc, #108]	@ (8002c90 <SystemCoreClockUpdate+0xf4>)
 8002c22:	687b      	ldr	r3, [r7, #4]
 8002c24:	fbb2 f3f3 	udiv	r3, r2, r3
 8002c28:	4a17      	ldr	r2, [pc, #92]	@ (8002c88 <SystemCoreClockUpdate+0xec>)
 8002c2a:	6852      	ldr	r2, [r2, #4]
 8002c2c:	0992      	lsrs	r2, r2, #6
 8002c2e:	f3c2 0208 	ubfx	r2, r2, #0, #9
 8002c32:	fb02 f303 	mul.w	r3, r2, r3
 8002c36:	617b      	str	r3, [r7, #20]
      }

      pllp = (((RCC->PLLCFGR & RCC_PLLCFGR_PLLP) >>16) + 1 ) *2;
 8002c38:	4b13      	ldr	r3, [pc, #76]	@ (8002c88 <SystemCoreClockUpdate+0xec>)
 8002c3a:	685b      	ldr	r3, [r3, #4]
 8002c3c:	0c1b      	lsrs	r3, r3, #16
 8002c3e:	f003 0303 	and.w	r3, r3, #3
 8002c42:	3301      	adds	r3, #1
 8002c44:	005b      	lsls	r3, r3, #1
 8002c46:	60fb      	str	r3, [r7, #12]
      SystemCoreClock = pllvco/pllp;
 8002c48:	697a      	ldr	r2, [r7, #20]
 8002c4a:	68fb      	ldr	r3, [r7, #12]
 8002c4c:	fbb2 f3f3 	udiv	r3, r2, r3
 8002c50:	4a0e      	ldr	r2, [pc, #56]	@ (8002c8c <SystemCoreClockUpdate+0xf0>)
 8002c52:	6013      	str	r3, [r2, #0]
      break;
 8002c54:	e003      	b.n	8002c5e <SystemCoreClockUpdate+0xc2>
    default:
      SystemCoreClock = HSI_VALUE;
 8002c56:	4b0d      	ldr	r3, [pc, #52]	@ (8002c8c <SystemCoreClockUpdate+0xf0>)
 8002c58:	4a0d      	ldr	r2, [pc, #52]	@ (8002c90 <SystemCoreClockUpdate+0xf4>)
 8002c5a:	601a      	str	r2, [r3, #0]
      break;
 8002c5c:	bf00      	nop
  }
  /* Compute HCLK frequency --------------------------------------------------*/
  /* Get HCLK prescaler */
  tmp = AHBPrescTable[((RCC->CFGR & RCC_CFGR_HPRE) >> 4)];
 8002c5e:	4b0a      	ldr	r3, [pc, #40]	@ (8002c88 <SystemCoreClockUpdate+0xec>)
 8002c60:	689b      	ldr	r3, [r3, #8]
 8002c62:	091b      	lsrs	r3, r3, #4
 8002c64:	f003 030f 	and.w	r3, r3, #15
 8002c68:	4a0b      	ldr	r2, [pc, #44]	@ (8002c98 <SystemCoreClockUpdate+0xfc>)
 8002c6a:	5cd3      	ldrb	r3, [r2, r3]
 8002c6c:	613b      	str	r3, [r7, #16]
  /* HCLK frequency */
  SystemCoreClock >>= tmp;
 8002c6e:	4b07      	ldr	r3, [pc, #28]	@ (8002c8c <SystemCoreClockUpdate+0xf0>)
 8002c70:	681a      	ldr	r2, [r3, #0]
 8002c72:	693b      	ldr	r3, [r7, #16]
 8002c74:	fa22 f303 	lsr.w	r3, r2, r3
 8002c78:	4a04      	ldr	r2, [pc, #16]	@ (8002c8c <SystemCoreClockUpdate+0xf0>)
 8002c7a:	6013      	str	r3, [r2, #0]
}
 8002c7c:	bf00      	nop
 8002c7e:	371c      	adds	r7, #28
 8002c80:	46bd      	mov	sp, r7
 8002c82:	f85d 7b04 	ldr.w	r7, [sp], #4
 8002c86:	4770      	bx	lr
 8002c88:	40023800 	.word	0x40023800
 8002c8c:	20000428 	.word	0x20000428
 8002c90:	00f42400 	.word	0x00f42400
 8002c94:	007a1200 	.word	0x007a1200
 8002c98:	080778e0 	.word	0x080778e0

08002c9c <__NVIC_EnableIRQ>:
{
 8002c9c:	b480      	push	{r7}
 8002c9e:	b083      	sub	sp, #12
 8002ca0:	af00      	add	r7, sp, #0
 8002ca2:	4603      	mov	r3, r0
 8002ca4:	71fb      	strb	r3, [r7, #7]
  if ((int32_t)(IRQn) >= 0)
 8002ca6:	f997 3007 	ldrsb.w	r3, [r7, #7]
 8002caa:	2b00      	cmp	r3, #0
 8002cac:	db0b      	blt.n	8002cc6 <__NVIC_EnableIRQ+0x2a>
    NVIC->ISER[(((uint32_t)IRQn) >> 5UL)] = (uint32_t)(1UL << (((uint32_t)IRQn) & 0x1FUL));
 8002cae:	79fb      	ldrb	r3, [r7, #7]
 8002cb0:	f003 021f 	and.w	r2, r3, #31
 8002cb4:	4907      	ldr	r1, [pc, #28]	@ (8002cd4 <__NVIC_EnableIRQ+0x38>)
 8002cb6:	f997 3007 	ldrsb.w	r3, [r7, #7]
 8002cba:	095b      	lsrs	r3, r3, #5
 8002cbc:	2001      	movs	r0, #1
 8002cbe:	fa00 f202 	lsl.w	r2, r0, r2
 8002cc2:	f841 2023 	str.w	r2, [r1, r3, lsl #2]
}
 8002cc6:	bf00      	nop
 8002cc8:	370c      	adds	r7, #12
 8002cca:	46bd      	mov	sp, r7
 8002ccc:	f85d 7b04 	ldr.w	r7, [sp], #4
 8002cd0:	4770      	bx	lr
 8002cd2:	bf00      	nop
 8002cd4:	e000e100 	.word	0xe000e100

08002cd8 <__NVIC_SetPriority>:
  \param [in]      IRQn  Interrupt number.
  \param [in]  priority  Priority to set.
  \note    The priority cannot be set for every processor exception.
 */
__STATIC_INLINE void __NVIC_SetPriority(IRQn_Type IRQn, uint32_t priority)
{
 8002cd8:	b480      	push	{r7}
 8002cda:	b083      	sub	sp, #12
 8002cdc:	af00      	add	r7, sp, #0
 8002cde:	4603      	mov	r3, r0
 8002ce0:	6039      	str	r1, [r7, #0]
 8002ce2:	71fb      	strb	r3, [r7, #7]
  if ((int32_t)(IRQn) >= 0)
 8002ce4:	f997 3007 	ldrsb.w	r3, [r7, #7]
 8002ce8:	2b00      	cmp	r3, #0
 8002cea:	db0a      	blt.n	8002d02 <__NVIC_SetPriority+0x2a>
  {
    NVIC->IP[((uint32_t)IRQn)]               = (uint8_t)((priority << (8U - __NVIC_PRIO_BITS)) & (uint32_t)0xFFUL);
 8002cec:	683b      	ldr	r3, [r7, #0]
 8002cee:	b2da      	uxtb	r2, r3
 8002cf0:	490c      	ldr	r1, [pc, #48]	@ (8002d24 <__NVIC_SetPriority+0x4c>)
 8002cf2:	f997 3007 	ldrsb.w	r3, [r7, #7]
 8002cf6:	0112      	lsls	r2, r2, #4
 8002cf8:	b2d2      	uxtb	r2, r2
 8002cfa:	440b      	add	r3, r1
 8002cfc:	f883 2300 	strb.w	r2, [r3, #768]	@ 0x300
  }
  else
  {
    SCB->SHP[(((uint32_t)IRQn) & 0xFUL)-4UL] = (uint8_t)((priority << (8U - __NVIC_PRIO_BITS)) & (uint32_t)0xFFUL);
  }
}
 8002d00:	e00a      	b.n	8002d18 <__NVIC_SetPriority+0x40>
    SCB->SHP[(((uint32_t)IRQn) & 0xFUL)-4UL] = (uint8_t)((priority << (8U - __NVIC_PRIO_BITS)) & (uint32_t)0xFFUL);
 8002d02:	683b      	ldr	r3, [r7, #0]
 8002d04:	b2da      	uxtb	r2, r3
 8002d06:	4908      	ldr	r1, [pc, #32]	@ (8002d28 <__NVIC_SetPriority+0x50>)
 8002d08:	79fb      	ldrb	r3, [r7, #7]
 8002d0a:	f003 030f 	and.w	r3, r3, #15
 8002d0e:	3b04      	subs	r3, #4
 8002d10:	0112      	lsls	r2, r2, #4
 8002d12:	b2d2      	uxtb	r2, r2
 8002d14:	440b      	add	r3, r1
 8002d16:	761a      	strb	r2, [r3, #24]
}
 8002d18:	bf00      	nop
 8002d1a:	370c      	adds	r7, #12
 8002d1c:	46bd      	mov	sp, r7
 8002d1e:	f85d 7b04 	ldr.w	r7, [sp], #4
 8002d22:	4770      	bx	lr
 8002d24:	e000e100 	.word	0xe000e100
 8002d28:	e000ed00 	.word	0xe000ed00

08002d2c <SysTick_Config>:
  \note    When the variable <b>__Vendor_SysTickConfig</b> is set to 1, then the
           function <b>SysTick_Config</b> is not included. In this case, the file <b><i>device</i>.h</b>
           must contain a vendor-specific implementation of this function.
 */
__STATIC_INLINE uint32_t SysTick_Config(uint32_t ticks)
{
 8002d2c:	b580      	push	{r7, lr}
 8002d2e:	b082      	sub	sp, #8
 8002d30:	af00      	add	r7, sp, #0
 8002d32:	6078      	str	r0, [r7, #4]
  if ((ticks - 1UL) > SysTick_LOAD_RELOAD_Msk)
 8002d34:	687b      	ldr	r3, [r7, #4]
 8002d36:	3b01      	subs	r3, #1
 8002d38:	f1b3 7f80 	cmp.w	r3, #16777216	@ 0x1000000
 8002d3c:	d301      	bcc.n	8002d42 <SysTick_Config+0x16>
  {
    return (1UL);                                                   /* Reload value impossible */
 8002d3e:	2301      	movs	r3, #1
 8002d40:	e00f      	b.n	8002d62 <SysTick_Config+0x36>
  }

  SysTick->LOAD  = (uint32_t)(ticks - 1UL);                         /* set reload register */
 8002d42:	4a0a      	ldr	r2, [pc, #40]	@ (8002d6c <SysTick_Config+0x40>)
 8002d44:	687b      	ldr	r3, [r7, #4]
 8002d46:	3b01      	subs	r3, #1
 8002d48:	6053      	str	r3, [r2, #4]
  NVIC_SetPriority (SysTick_IRQn, (1UL << __NVIC_PRIO_BITS) - 1UL); /* set Priority for Systick Interrupt */
 8002d4a:	210f      	movs	r1, #15
 8002d4c:	f04f 30ff 	mov.w	r0, #4294967295	@ 0xffffffff
 8002d50:	f7ff ffc2 	bl	8002cd8 <__NVIC_SetPriority>
  SysTick->VAL   = 0UL;                                             /* Load the SysTick Counter Value */
 8002d54:	4b05      	ldr	r3, [pc, #20]	@ (8002d6c <SysTick_Config+0x40>)
 8002d56:	2200      	movs	r2, #0
 8002d58:	609a      	str	r2, [r3, #8]
  SysTick->CTRL  = SysTick_CTRL_CLKSOURCE_Msk |
 8002d5a:	4b04      	ldr	r3, [pc, #16]	@ (8002d6c <SysTick_Config+0x40>)
 8002d5c:	2207      	movs	r2, #7
 8002d5e:	601a      	str	r2, [r3, #0]
                   SysTick_CTRL_TICKINT_Msk   |
                   SysTick_CTRL_ENABLE_Msk;                         /* Enable SysTick IRQ and SysTick Timer */
  return (0UL);                                                     /* Function successful */
 8002d60:	2300      	movs	r3, #0
}
 8002d62:	4618      	mov	r0, r3
 8002d64:	3708      	adds	r7, #8
 8002d66:	46bd      	mov	sp, r7
 8002d68:	bd80      	pop	{r7, pc}
 8002d6a:	bf00      	nop
 8002d6c:	e000e010 	.word	0xe000e010

08002d70 <SysTick_Init>:
#include "stm32f446xx.h"

volatile uint32_t ticks;

// Call this after setting up the clock
void SysTick_Init(void) {
 8002d70:	b580      	push	{r7, lr}
 8002d72:	af00      	add	r7, sp, #0
    // Enable the SysTick interrupt every 1ms
    SysTick_Config(SystemCoreClock / 1000);
 8002d74:	4b07      	ldr	r3, [pc, #28]	@ (8002d94 <SysTick_Init+0x24>)
 8002d76:	681b      	ldr	r3, [r3, #0]
 8002d78:	4a07      	ldr	r2, [pc, #28]	@ (8002d98 <SysTick_Init+0x28>)
 8002d7a:	fba2 2303 	umull	r2, r3, r2, r3
 8002d7e:	099b      	lsrs	r3, r3, #6
 8002d80:	4618      	mov	r0, r3
 8002d82:	f7ff ffd3 	bl	8002d2c <SysTick_Config>
    NVIC_EnableIRQ(SysTick_IRQn);
 8002d86:	f04f 30ff 	mov.w	r0, #4294967295	@ 0xffffffff
 8002d8a:	f7ff ff87 	bl	8002c9c <__NVIC_EnableIRQ>
}
 8002d8e:	bf00      	nop
 8002d90:	bd80      	pop	{r7, pc}
 8002d92:	bf00      	nop
 8002d94:	20000428 	.word	0x20000428
 8002d98:	10624dd3 	.word	0x10624dd3

08002d9c <Reset_Handler>:

    .section  .text.Reset_Handler
  .weak  Reset_Handler
  .type  Reset_Handler, %function
Reset_Handler:  
  ldr   sp, =_estack      /* set stack pointer */
 8002d9c:	f8df d034 	ldr.w	sp, [pc, #52]	@ 8002dd4 <LoopFillZerobss+0xe>
  
/* Call the clock system initialization function.*/
  bl  SystemInit  
 8002da0:	f7ff feea 	bl	8002b78 <SystemInit>

/* Copy the data segment initializers from flash to SRAM */  
  ldr r0, =_sdata
 8002da4:	480c      	ldr	r0, [pc, #48]	@ (8002dd8 <LoopFillZerobss+0x12>)
  ldr r1, =_edata
 8002da6:	490d      	ldr	r1, [pc, #52]	@ (8002ddc <LoopFillZerobss+0x16>)
  ldr r2, =_sidata
 8002da8:	4a0d      	ldr	r2, [pc, #52]	@ (8002de0 <LoopFillZerobss+0x1a>)
  movs r3, #0
 8002daa:	2300      	movs	r3, #0
  b LoopCopyDataInit
 8002dac:	e002      	b.n	8002db4 <LoopCopyDataInit>

08002dae <CopyDataInit>:

CopyDataInit:
  ldr r4, [r2, r3]
 8002dae:	58d4      	ldr	r4, [r2, r3]
  str r4, [r0, r3]
 8002db0:	50c4      	str	r4, [r0, r3]
  adds r3, r3, #4
 8002db2:	3304      	adds	r3, #4

08002db4 <LoopCopyDataInit>:

LoopCopyDataInit:
  adds r4, r0, r3
 8002db4:	18c4      	adds	r4, r0, r3
  cmp r4, r1
 8002db6:	428c      	cmp	r4, r1
  bcc CopyDataInit
 8002db8:	d3f9      	bcc.n	8002dae <CopyDataInit>
  
/* Zero fill the bss segment. */
  ldr r2, =_sbss
 8002dba:	4a0a      	ldr	r2, [pc, #40]	@ (8002de4 <LoopFillZerobss+0x1e>)
  ldr r4, =_ebss
 8002dbc:	4c0a      	ldr	r4, [pc, #40]	@ (8002de8 <LoopFillZerobss+0x22>)
  movs r3, #0
 8002dbe:	2300      	movs	r3, #0
  b LoopFillZerobss
 8002dc0:	e001      	b.n	8002dc6 <LoopFillZerobss>

08002dc2 <FillZerobss>:

FillZerobss:
  str  r3, [r2]
 8002dc2:	6013      	str	r3, [r2, #0]
  adds r2, r2, #4
 8002dc4:	3204      	adds	r2, #4

08002dc6 <LoopFillZerobss>:

LoopFillZerobss:
  cmp r2, r4
 8002dc6:	42a2      	cmp	r2, r4
  bcc FillZerobss
 8002dc8:	d3fb      	bcc.n	8002dc2 <FillZerobss>
  
/* Call static constructors */
    bl __libc_init_array
 8002dca:	f001 f955 	bl	8004078 <__libc_init_array>
/* Call the application's entry point.*/
  bl  main
 8002dce:	f7ff fb47 	bl	8002460 <main>
  bx  lr    
 8002dd2:	4770      	bx	lr
  ldr   sp, =_estack      /* set stack pointer */
 8002dd4:	20020000 	.word	0x20020000
  ldr r0, =_sdata
 8002dd8:	20000000 	.word	0x20000000
  ldr r1, =_edata
 8002ddc:	20000480 	.word	0x20000480
  ldr r2, =_sidata
 8002de0:	08077cc8 	.word	0x08077cc8
  ldr r2, =_sbss
 8002de4:	20000480 	.word	0x20000480
  ldr r4, =_ebss
 8002de8:	2000b6b0 	.word	0x2000b6b0

08002dec <ADC_IRQHandler>:
 * @retval None       
*/
    .section  .text.Default_Handler,"ax",%progbits
Default_Handler:
Infinite_Loop:
  b  Infinite_Loop
 8002dec:	e7fe      	b.n	8002dec <ADC_IRQHandler>
	...

08002df0 <HAL_IncTick>:
 * @note This function is declared as __weak to be overwritten in case of other 
  *      implementations in user file.
  * @retval None
  */
__weak void HAL_IncTick(void)
{
 8002df0:	b480      	push	{r7}
 8002df2:	af00      	add	r7, sp, #0
  uwTick += uwTickFreq;
 8002df4:	4b06      	ldr	r3, [pc, #24]	@ (8002e10 <HAL_IncTick+0x20>)
 8002df6:	781b      	ldrb	r3, [r3, #0]
 8002df8:	461a      	mov	r2, r3
 8002dfa:	4b06      	ldr	r3, [pc, #24]	@ (8002e14 <HAL_IncTick+0x24>)
 8002dfc:	681b      	ldr	r3, [r3, #0]
 8002dfe:	4413      	add	r3, r2
 8002e00:	4a04      	ldr	r2, [pc, #16]	@ (8002e14 <HAL_IncTick+0x24>)
 8002e02:	6013      	str	r3, [r2, #0]
}
 8002e04:	bf00      	nop
 8002e06:	46bd      	mov	sp, r7
 8002e08:	f85d 7b04 	ldr.w	r7, [sp], #4
 8002e0c:	4770      	bx	lr
 8002e0e:	bf00      	nop
 8002e10:	2000042c 	.word	0x2000042c
 8002e14:	2000b564 	.word	0x2000b564

08002e18 <HAL_GetTick>:
  * @note This function is declared as __weak to be overwritten in case of other 
  *       implementations in user file.
  * @retval tick value
  */
__weak uint32_t HAL_GetTick(void)
{
 8002e18:	b480      	push	{r7}
 8002e1a:	af00      	add	r7, sp, #0
  return uwTick;
 8002e1c:	4b03      	ldr	r3, [pc, #12]	@ (8002e2c <HAL_GetTick+0x14>)
 8002e1e:	681b      	ldr	r3, [r3, #0]
}
 8002e20:	4618      	mov	r0, r3
 8002e22:	46bd      	mov	sp, r7
 8002e24:	f85d 7b04 	ldr.w	r7, [sp], #4
 8002e28:	4770      	bx	lr
 8002e2a:	bf00      	nop
 8002e2c:	2000b564 	.word	0x2000b564

08002e30 <HAL_Delay>:
  *       implementations in user file.
  * @param Delay specifies the delay time length, in milliseconds.
  * @retval None
  */
__weak void HAL_Delay(uint32_t Delay)
{
 8002e30:	b580      	push	{r7, lr}
 8002e32:	b084      	sub	sp, #16
 8002e34:	af00      	add	r7, sp, #0
 8002e36:	6078      	str	r0, [r7, #4]
  uint32_t tickstart = HAL_GetTick();
 8002e38:	f7ff ffee 	bl	8002e18 <HAL_GetTick>
 8002e3c:	60b8      	str	r0, [r7, #8]
  uint32_t wait = Delay;
 8002e3e:	687b      	ldr	r3, [r7, #4]
 8002e40:	60fb      	str	r3, [r7, #12]

  /* Add a freq to guarantee minimum wait */
  if (wait < HAL_MAX_DELAY)
 8002e42:	68fb      	ldr	r3, [r7, #12]
 8002e44:	f1b3 3fff 	cmp.w	r3, #4294967295	@ 0xffffffff
 8002e48:	d005      	beq.n	8002e56 <HAL_Delay+0x26>
  {
    wait += (uint32_t)(uwTickFreq);
 8002e4a:	4b0a      	ldr	r3, [pc, #40]	@ (8002e74 <HAL_Delay+0x44>)
 8002e4c:	781b      	ldrb	r3, [r3, #0]
 8002e4e:	461a      	mov	r2, r3
 8002e50:	68fb      	ldr	r3, [r7, #12]
 8002e52:	4413      	add	r3, r2
 8002e54:	60fb      	str	r3, [r7, #12]
  }

  while((HAL_GetTick() - tickstart) < wait)
 8002e56:	bf00      	nop
 8002e58:	f7ff ffde 	bl	8002e18 <HAL_GetTick>
 8002e5c:	4602      	mov	r2, r0
 8002e5e:	68bb      	ldr	r3, [r7, #8]
 8002e60:	1ad3      	subs	r3, r2, r3
 8002e62:	68fa      	ldr	r2, [r7, #12]
 8002e64:	429a      	cmp	r2, r3
 8002e66:	d8f7      	bhi.n	8002e58 <HAL_Delay+0x28>
  {
  }
}
 8002e68:	bf00      	nop
 8002e6a:	bf00      	nop
 8002e6c:	3710      	adds	r7, #16
 8002e6e:	46bd      	mov	sp, r7
 8002e70:	bd80      	pop	{r7, pc}
 8002e72:	bf00      	nop
 8002e74:	2000042c 	.word	0x2000042c

08002e78 <HAL_ADC_Init>:
  * @param  hadc pointer to a ADC_HandleTypeDef structure that contains
  *         the configuration information for the specified ADC.
  * @retval HAL status
  */
HAL_StatusTypeDef HAL_ADC_Init(ADC_HandleTypeDef *hadc)
{
 8002e78:	b580      	push	{r7, lr}
 8002e7a:	b084      	sub	sp, #16
 8002e7c:	af00      	add	r7, sp, #0
 8002e7e:	6078      	str	r0, [r7, #4]
  HAL_StatusTypeDef tmp_hal_status = HAL_OK;
 8002e80:	2300      	movs	r3, #0
 8002e82:	73fb      	strb	r3, [r7, #15]

  /* Check ADC handle */
  if (hadc == NULL)
 8002e84:	687b      	ldr	r3, [r7, #4]
 8002e86:	2b00      	cmp	r3, #0
 8002e88:	d101      	bne.n	8002e8e <HAL_ADC_Init+0x16>
  {
    return HAL_ERROR;
 8002e8a:	2301      	movs	r3, #1
 8002e8c:	e033      	b.n	8002ef6 <HAL_ADC_Init+0x7e>
  if (hadc->Init.ExternalTrigConv != ADC_SOFTWARE_START)
  {
    assert_param(IS_ADC_EXT_TRIG_EDGE(hadc->Init.ExternalTrigConvEdge));
  }

  if (hadc->State == HAL_ADC_STATE_RESET)
 8002e8e:	687b      	ldr	r3, [r7, #4]
 8002e90:	6c1b      	ldr	r3, [r3, #64]	@ 0x40
 8002e92:	2b00      	cmp	r3, #0
 8002e94:	d109      	bne.n	8002eaa <HAL_ADC_Init+0x32>

    /* Init the low level hardware */
    hadc->MspInitCallback(hadc);
#else
    /* Init the low level hardware */
    HAL_ADC_MspInit(hadc);
 8002e96:	6878      	ldr	r0, [r7, #4]
 8002e98:	f7ff fd9a 	bl	80029d0 <HAL_ADC_MspInit>
#endif /* USE_HAL_ADC_REGISTER_CALLBACKS */

    /* Initialize ADC error code */
    ADC_CLEAR_ERRORCODE(hadc);
 8002e9c:	687b      	ldr	r3, [r7, #4]
 8002e9e:	2200      	movs	r2, #0
 8002ea0:	645a      	str	r2, [r3, #68]	@ 0x44

    /* Allocate lock resource and initialize it */
    hadc->Lock = HAL_UNLOCKED;
 8002ea2:	687b      	ldr	r3, [r7, #4]
 8002ea4:	2200      	movs	r2, #0
 8002ea6:	f883 203c 	strb.w	r2, [r3, #60]	@ 0x3c
  }

  /* Configuration of ADC parameters if previous preliminary actions are      */
  /* correctly completed.                                                     */
  if (HAL_IS_BIT_CLR(hadc->State, HAL_ADC_STATE_ERROR_INTERNAL))
 8002eaa:	687b      	ldr	r3, [r7, #4]
 8002eac:	6c1b      	ldr	r3, [r3, #64]	@ 0x40
 8002eae:	f003 0310 	and.w	r3, r3, #16
 8002eb2:	2b00      	cmp	r3, #0
 8002eb4:	d118      	bne.n	8002ee8 <HAL_ADC_Init+0x70>
  {
    /* Set ADC state */
    ADC_STATE_CLR_SET(hadc->State,
 8002eb6:	687b      	ldr	r3, [r7, #4]
 8002eb8:	6c1b      	ldr	r3, [r3, #64]	@ 0x40
 8002eba:	f423 5388 	bic.w	r3, r3, #4352	@ 0x1100
 8002ebe:	f023 0302 	bic.w	r3, r3, #2
 8002ec2:	f043 0202 	orr.w	r2, r3, #2
 8002ec6:	687b      	ldr	r3, [r7, #4]
 8002ec8:	641a      	str	r2, [r3, #64]	@ 0x40
                      HAL_ADC_STATE_REG_BUSY | HAL_ADC_STATE_INJ_BUSY,
                      HAL_ADC_STATE_BUSY_INTERNAL);

    /* Set ADC parameters */
    ADC_Init(hadc);
 8002eca:	6878      	ldr	r0, [r7, #4]
 8002ecc:	f000 fab4 	bl	8003438 <ADC_Init>

    /* Set ADC error code to none */
    ADC_CLEAR_ERRORCODE(hadc);
 8002ed0:	687b      	ldr	r3, [r7, #4]
 8002ed2:	2200      	movs	r2, #0
 8002ed4:	645a      	str	r2, [r3, #68]	@ 0x44

    /* Set the ADC state */
    ADC_STATE_CLR_SET(hadc->State,
 8002ed6:	687b      	ldr	r3, [r7, #4]
 8002ed8:	6c1b      	ldr	r3, [r3, #64]	@ 0x40
 8002eda:	f023 0303 	bic.w	r3, r3, #3
 8002ede:	f043 0201 	orr.w	r2, r3, #1
 8002ee2:	687b      	ldr	r3, [r7, #4]
 8002ee4:	641a      	str	r2, [r3, #64]	@ 0x40
 8002ee6:	e001      	b.n	8002eec <HAL_ADC_Init+0x74>
                      HAL_ADC_STATE_BUSY_INTERNAL,
                      HAL_ADC_STATE_READY);
  }
  else
  {
    tmp_hal_status = HAL_ERROR;
 8002ee8:	2301      	movs	r3, #1
 8002eea:	73fb      	strb	r3, [r7, #15]
  }

  /* Release Lock */
  __HAL_UNLOCK(hadc);
 8002eec:	687b      	ldr	r3, [r7, #4]
 8002eee:	2200      	movs	r2, #0
 8002ef0:	f883 203c 	strb.w	r2, [r3, #60]	@ 0x3c

  /* Return function status */
  return tmp_hal_status;
 8002ef4:	7bfb      	ldrb	r3, [r7, #15]
}
 8002ef6:	4618      	mov	r0, r3
 8002ef8:	3710      	adds	r7, #16
 8002efa:	46bd      	mov	sp, r7
 8002efc:	bd80      	pop	{r7, pc}
	...

08002f00 <HAL_ADC_Start>:
  * @param  hadc pointer to a ADC_HandleTypeDef structure that contains
  *         the configuration information for the specified ADC.
  * @retval HAL status
  */
HAL_StatusTypeDef HAL_ADC_Start(ADC_HandleTypeDef *hadc)
{
 8002f00:	b480      	push	{r7}
 8002f02:	b085      	sub	sp, #20
 8002f04:	af00      	add	r7, sp, #0
 8002f06:	6078      	str	r0, [r7, #4]
  __IO uint32_t counter = 0U;
 8002f08:	2300      	movs	r3, #0
 8002f0a:	60bb      	str	r3, [r7, #8]
  /* Check the parameters */
  assert_param(IS_FUNCTIONAL_STATE(hadc->Init.ContinuousConvMode));
  assert_param(IS_ADC_EXT_TRIG_EDGE(hadc->Init.ExternalTrigConvEdge));

  /* Process locked */
  __HAL_LOCK(hadc);
 8002f0c:	687b      	ldr	r3, [r7, #4]
 8002f0e:	f893 303c 	ldrb.w	r3, [r3, #60]	@ 0x3c
 8002f12:	2b01      	cmp	r3, #1
 8002f14:	d101      	bne.n	8002f1a <HAL_ADC_Start+0x1a>
 8002f16:	2302      	movs	r3, #2
 8002f18:	e0b2      	b.n	8003080 <HAL_ADC_Start+0x180>
 8002f1a:	687b      	ldr	r3, [r7, #4]
 8002f1c:	2201      	movs	r2, #1
 8002f1e:	f883 203c 	strb.w	r2, [r3, #60]	@ 0x3c

  /* Enable the ADC peripheral */
  /* Check if ADC peripheral is disabled in order to enable it and wait during
  Tstab time the ADC's stabilization */
  if ((hadc->Instance->CR2 & ADC_CR2_ADON) != ADC_CR2_ADON)
 8002f22:	687b      	ldr	r3, [r7, #4]
 8002f24:	681b      	ldr	r3, [r3, #0]
 8002f26:	689b      	ldr	r3, [r3, #8]
 8002f28:	f003 0301 	and.w	r3, r3, #1
 8002f2c:	2b01      	cmp	r3, #1
 8002f2e:	d018      	beq.n	8002f62 <HAL_ADC_Start+0x62>
  {
    /* Enable the Peripheral */
    __HAL_ADC_ENABLE(hadc);
 8002f30:	687b      	ldr	r3, [r7, #4]
 8002f32:	681b      	ldr	r3, [r3, #0]
 8002f34:	689a      	ldr	r2, [r3, #8]
 8002f36:	687b      	ldr	r3, [r7, #4]
 8002f38:	681b      	ldr	r3, [r3, #0]
 8002f3a:	f042 0201 	orr.w	r2, r2, #1
 8002f3e:	609a      	str	r2, [r3, #8]

    /* Delay for ADC stabilization time */
    /* Compute number of CPU cycles to wait for */
    counter = (ADC_STAB_DELAY_US * (SystemCoreClock / 1000000U));
 8002f40:	4b52      	ldr	r3, [pc, #328]	@ (800308c <HAL_ADC_Start+0x18c>)
 8002f42:	681b      	ldr	r3, [r3, #0]
 8002f44:	4a52      	ldr	r2, [pc, #328]	@ (8003090 <HAL_ADC_Start+0x190>)
 8002f46:	fba2 2303 	umull	r2, r3, r2, r3
 8002f4a:	0c9a      	lsrs	r2, r3, #18
 8002f4c:	4613      	mov	r3, r2
 8002f4e:	005b      	lsls	r3, r3, #1
 8002f50:	4413      	add	r3, r2
 8002f52:	60bb      	str	r3, [r7, #8]
    while (counter != 0U)
 8002f54:	e002      	b.n	8002f5c <HAL_ADC_Start+0x5c>
    {
      counter--;
 8002f56:	68bb      	ldr	r3, [r7, #8]
 8002f58:	3b01      	subs	r3, #1
 8002f5a:	60bb      	str	r3, [r7, #8]
    while (counter != 0U)
 8002f5c:	68bb      	ldr	r3, [r7, #8]
 8002f5e:	2b00      	cmp	r3, #0
 8002f60:	d1f9      	bne.n	8002f56 <HAL_ADC_Start+0x56>
    }
  }

  /* Start conversion if ADC is effectively enabled */
  if (HAL_IS_BIT_SET(hadc->Instance->CR2, ADC_CR2_ADON))
 8002f62:	687b      	ldr	r3, [r7, #4]
 8002f64:	681b      	ldr	r3, [r3, #0]
 8002f66:	689b      	ldr	r3, [r3, #8]
 8002f68:	f003 0301 	and.w	r3, r3, #1
 8002f6c:	2b01      	cmp	r3, #1
 8002f6e:	d17a      	bne.n	8003066 <HAL_ADC_Start+0x166>
  {
    /* Set ADC state                                                          */
    /* - Clear state bitfield related to regular group conversion results     */
    /* - Set state bitfield related to regular group operation                */
    ADC_STATE_CLR_SET(hadc->State,
 8002f70:	687b      	ldr	r3, [r7, #4]
 8002f72:	6c1b      	ldr	r3, [r3, #64]	@ 0x40
 8002f74:	f423 63e0 	bic.w	r3, r3, #1792	@ 0x700
 8002f78:	f023 0301 	bic.w	r3, r3, #1
 8002f7c:	f443 7280 	orr.w	r2, r3, #256	@ 0x100
 8002f80:	687b      	ldr	r3, [r7, #4]
 8002f82:	641a      	str	r2, [r3, #64]	@ 0x40
                      HAL_ADC_STATE_READY | HAL_ADC_STATE_REG_EOC | HAL_ADC_STATE_REG_OVR,
                      HAL_ADC_STATE_REG_BUSY);

    /* If conversions on group regular are also triggering group injected,    */
    /* update ADC state.                                                      */
    if (READ_BIT(hadc->Instance->CR1, ADC_CR1_JAUTO) != RESET)
 8002f84:	687b      	ldr	r3, [r7, #4]
 8002f86:	681b      	ldr	r3, [r3, #0]
 8002f88:	685b      	ldr	r3, [r3, #4]
 8002f8a:	f403 6380 	and.w	r3, r3, #1024	@ 0x400
 8002f8e:	2b00      	cmp	r3, #0
 8002f90:	d007      	beq.n	8002fa2 <HAL_ADC_Start+0xa2>
    {
      ADC_STATE_CLR_SET(hadc->State, HAL_ADC_STATE_INJ_EOC, HAL_ADC_STATE_INJ_BUSY);
 8002f92:	687b      	ldr	r3, [r7, #4]
 8002f94:	6c1b      	ldr	r3, [r3, #64]	@ 0x40
 8002f96:	f423 5340 	bic.w	r3, r3, #12288	@ 0x3000
 8002f9a:	f443 5280 	orr.w	r2, r3, #4096	@ 0x1000
 8002f9e:	687b      	ldr	r3, [r7, #4]
 8002fa0:	641a      	str	r2, [r3, #64]	@ 0x40
    }

    /* State machine update: Check if an injected conversion is ongoing */
    if (HAL_IS_BIT_SET(hadc->State, HAL_ADC_STATE_INJ_BUSY))
 8002fa2:	687b      	ldr	r3, [r7, #4]
 8002fa4:	6c1b      	ldr	r3, [r3, #64]	@ 0x40
 8002fa6:	f403 5380 	and.w	r3, r3, #4096	@ 0x1000
 8002faa:	f5b3 5f80 	cmp.w	r3, #4096	@ 0x1000
 8002fae:	d106      	bne.n	8002fbe <HAL_ADC_Start+0xbe>
    {
      /* Reset ADC error code fields related to conversions on group regular */
      CLEAR_BIT(hadc->ErrorCode, (HAL_ADC_ERROR_OVR | HAL_ADC_ERROR_DMA));
 8002fb0:	687b      	ldr	r3, [r7, #4]
 8002fb2:	6c5b      	ldr	r3, [r3, #68]	@ 0x44
 8002fb4:	f023 0206 	bic.w	r2, r3, #6
 8002fb8:	687b      	ldr	r3, [r7, #4]
 8002fba:	645a      	str	r2, [r3, #68]	@ 0x44
 8002fbc:	e002      	b.n	8002fc4 <HAL_ADC_Start+0xc4>
    }
    else
    {
      /* Reset ADC all error code fields */
      ADC_CLEAR_ERRORCODE(hadc);
 8002fbe:	687b      	ldr	r3, [r7, #4]
 8002fc0:	2200      	movs	r2, #0
 8002fc2:	645a      	str	r2, [r3, #68]	@ 0x44
    }

    /* Process unlocked */
    /* Unlock before starting ADC conversions: in case of potential           */
    /* interruption, to let the process to ADC IRQ Handler.                   */
    __HAL_UNLOCK(hadc);
 8002fc4:	687b      	ldr	r3, [r7, #4]
 8002fc6:	2200      	movs	r2, #0
 8002fc8:	f883 203c 	strb.w	r2, [r3, #60]	@ 0x3c

    /* Pointer to the common control register to which is belonging hadc    */
    /* (Depending on STM32F4 product, there may be up to 3 ADCs and 1 common */
    /* control register)                                                    */
    tmpADC_Common = ADC_COMMON_REGISTER(hadc);
 8002fcc:	4b31      	ldr	r3, [pc, #196]	@ (8003094 <HAL_ADC_Start+0x194>)
 8002fce:	60fb      	str	r3, [r7, #12]

    /* Clear regular group conversion flag and overrun flag */
    /* (To ensure of no unknown state from potential previous ADC operations) */
    __HAL_ADC_CLEAR_FLAG(hadc, ADC_FLAG_EOC | ADC_FLAG_OVR);
 8002fd0:	687b      	ldr	r3, [r7, #4]
 8002fd2:	681b      	ldr	r3, [r3, #0]
 8002fd4:	f06f 0222 	mvn.w	r2, #34	@ 0x22
 8002fd8:	601a      	str	r2, [r3, #0]

    /* Check if Multimode enabled */
    if (HAL_IS_BIT_CLR(tmpADC_Common->CCR, ADC_CCR_MULTI))
 8002fda:	68fb      	ldr	r3, [r7, #12]
 8002fdc:	685b      	ldr	r3, [r3, #4]
 8002fde:	f003 031f 	and.w	r3, r3, #31
 8002fe2:	2b00      	cmp	r3, #0
 8002fe4:	d12a      	bne.n	800303c <HAL_ADC_Start+0x13c>
    {
#if defined(ADC2) && defined(ADC3)
      if ((hadc->Instance == ADC1) || ((hadc->Instance == ADC2) && ((ADC->CCR & ADC_CCR_MULTI_Msk) < ADC_CCR_MULTI_0)) \
 8002fe6:	687b      	ldr	r3, [r7, #4]
 8002fe8:	681b      	ldr	r3, [r3, #0]
 8002fea:	4a2b      	ldr	r2, [pc, #172]	@ (8003098 <HAL_ADC_Start+0x198>)
 8002fec:	4293      	cmp	r3, r2
 8002fee:	d015      	beq.n	800301c <HAL_ADC_Start+0x11c>
 8002ff0:	687b      	ldr	r3, [r7, #4]
 8002ff2:	681b      	ldr	r3, [r3, #0]
 8002ff4:	4a29      	ldr	r2, [pc, #164]	@ (800309c <HAL_ADC_Start+0x19c>)
 8002ff6:	4293      	cmp	r3, r2
 8002ff8:	d105      	bne.n	8003006 <HAL_ADC_Start+0x106>
 8002ffa:	4b26      	ldr	r3, [pc, #152]	@ (8003094 <HAL_ADC_Start+0x194>)
 8002ffc:	685b      	ldr	r3, [r3, #4]
 8002ffe:	f003 031f 	and.w	r3, r3, #31
 8003002:	2b00      	cmp	r3, #0
 8003004:	d00a      	beq.n	800301c <HAL_ADC_Start+0x11c>
          || ((hadc->Instance == ADC3) && ((ADC->CCR & ADC_CCR_MULTI_Msk) < ADC_CCR_MULTI_4)))
 8003006:	687b      	ldr	r3, [r7, #4]
 8003008:	681b      	ldr	r3, [r3, #0]
 800300a:	4a25      	ldr	r2, [pc, #148]	@ (80030a0 <HAL_ADC_Start+0x1a0>)
 800300c:	4293      	cmp	r3, r2
 800300e:	d136      	bne.n	800307e <HAL_ADC_Start+0x17e>
 8003010:	4b20      	ldr	r3, [pc, #128]	@ (8003094 <HAL_ADC_Start+0x194>)
 8003012:	685b      	ldr	r3, [r3, #4]
 8003014:	f003 0310 	and.w	r3, r3, #16
 8003018:	2b00      	cmp	r3, #0
 800301a:	d130      	bne.n	800307e <HAL_ADC_Start+0x17e>
      {
#endif /* ADC2 || ADC3 */
        /* if no external trigger present enable software conversion of regular channels */
        if ((hadc->Instance->CR2 & ADC_CR2_EXTEN) == RESET)
 800301c:	687b      	ldr	r3, [r7, #4]
 800301e:	681b      	ldr	r3, [r3, #0]
 8003020:	689b      	ldr	r3, [r3, #8]
 8003022:	f003 5340 	and.w	r3, r3, #805306368	@ 0x30000000
 8003026:	2b00      	cmp	r3, #0
 8003028:	d129      	bne.n	800307e <HAL_ADC_Start+0x17e>
        {
          /* Enable the selected ADC software conversion for regular group */
          hadc->Instance->CR2 |= (uint32_t)ADC_CR2_SWSTART;
 800302a:	687b      	ldr	r3, [r7, #4]
 800302c:	681b      	ldr	r3, [r3, #0]
 800302e:	689a      	ldr	r2, [r3, #8]
 8003030:	687b      	ldr	r3, [r7, #4]
 8003032:	681b      	ldr	r3, [r3, #0]
 8003034:	f042 4280 	orr.w	r2, r2, #1073741824	@ 0x40000000
 8003038:	609a      	str	r2, [r3, #8]
 800303a:	e020      	b.n	800307e <HAL_ADC_Start+0x17e>
#endif /* ADC2 || ADC3 */
    }
    else
    {
      /* if instance of handle correspond to ADC1 and  no external trigger present enable software conversion of regular channels */
      if ((hadc->Instance == ADC1) && ((hadc->Instance->CR2 & ADC_CR2_EXTEN) == RESET))
 800303c:	687b      	ldr	r3, [r7, #4]
 800303e:	681b      	ldr	r3, [r3, #0]
 8003040:	4a15      	ldr	r2, [pc, #84]	@ (8003098 <HAL_ADC_Start+0x198>)
 8003042:	4293      	cmp	r3, r2
 8003044:	d11b      	bne.n	800307e <HAL_ADC_Start+0x17e>
 8003046:	687b      	ldr	r3, [r7, #4]
 8003048:	681b      	ldr	r3, [r3, #0]
 800304a:	689b      	ldr	r3, [r3, #8]
 800304c:	f003 5340 	and.w	r3, r3, #805306368	@ 0x30000000
 8003050:	2b00      	cmp	r3, #0
 8003052:	d114      	bne.n	800307e <HAL_ADC_Start+0x17e>
      {
        /* Enable the selected ADC software conversion for regular group */
        hadc->Instance->CR2 |= (uint32_t)ADC_CR2_SWSTART;
 8003054:	687b      	ldr	r3, [r7, #4]
 8003056:	681b      	ldr	r3, [r3, #0]
 8003058:	689a      	ldr	r2, [r3, #8]
 800305a:	687b      	ldr	r3, [r7, #4]
 800305c:	681b      	ldr	r3, [r3, #0]
 800305e:	f042 4280 	orr.w	r2, r2, #1073741824	@ 0x40000000
 8003062:	609a      	str	r2, [r3, #8]
 8003064:	e00b      	b.n	800307e <HAL_ADC_Start+0x17e>
    }
  }
  else
  {
    /* Update ADC state machine to error */
    SET_BIT(hadc->State, HAL_ADC_STATE_ERROR_INTERNAL);
 8003066:	687b      	ldr	r3, [r7, #4]
 8003068:	6c1b      	ldr	r3, [r3, #64]	@ 0x40
 800306a:	f043 0210 	orr.w	r2, r3, #16
 800306e:	687b      	ldr	r3, [r7, #4]
 8003070:	641a      	str	r2, [r3, #64]	@ 0x40

    /* Set ADC error code to ADC IP internal error */
    SET_BIT(hadc->ErrorCode, HAL_ADC_ERROR_INTERNAL);
 8003072:	687b      	ldr	r3, [r7, #4]
 8003074:	6c5b      	ldr	r3, [r3, #68]	@ 0x44
 8003076:	f043 0201 	orr.w	r2, r3, #1
 800307a:	687b      	ldr	r3, [r7, #4]
 800307c:	645a      	str	r2, [r3, #68]	@ 0x44
  }

  /* Return function status */
  return HAL_OK;
 800307e:	2300      	movs	r3, #0
}
 8003080:	4618      	mov	r0, r3
 8003082:	3714      	adds	r7, #20
 8003084:	46bd      	mov	sp, r7
 8003086:	f85d 7b04 	ldr.w	r7, [sp], #4
 800308a:	4770      	bx	lr
 800308c:	20000428 	.word	0x20000428
 8003090:	431bde83 	.word	0x431bde83
 8003094:	40012300 	.word	0x40012300
 8003098:	40012000 	.word	0x40012000
 800309c:	40012100 	.word	0x40012100
 80030a0:	40012200 	.word	0x40012200

080030a4 <HAL_ADC_PollForConversion>:
  *         the configuration information for the specified ADC.
  * @param  Timeout Timeout value in millisecond.
  * @retval HAL status
  */
HAL_StatusTypeDef HAL_ADC_PollForConversion(ADC_HandleTypeDef *hadc, uint32_t Timeout)
{
 80030a4:	b580      	push	{r7, lr}
 80030a6:	b084      	sub	sp, #16
 80030a8:	af00      	add	r7, sp, #0
 80030aa:	6078      	str	r0, [r7, #4]
 80030ac:	6039      	str	r1, [r7, #0]
  uint32_t tickstart = 0U;
 80030ae:	2300      	movs	r3, #0
 80030b0:	60fb      	str	r3, [r7, #12]
  /* each conversion:                                                       */
  /* Particular case is ADC configured in DMA mode and ADC sequencer with   */
  /* several ranks and polling for end of each conversion.                  */
  /* For code simplicity sake, this particular case is generalized to       */
  /* ADC configured in DMA mode and polling for end of each conversion.     */
  if (HAL_IS_BIT_SET(hadc->Instance->CR2, ADC_CR2_EOCS) &&
 80030b2:	687b      	ldr	r3, [r7, #4]
 80030b4:	681b      	ldr	r3, [r3, #0]
 80030b6:	689b      	ldr	r3, [r3, #8]
 80030b8:	f403 6380 	and.w	r3, r3, #1024	@ 0x400
 80030bc:	f5b3 6f80 	cmp.w	r3, #1024	@ 0x400
 80030c0:	d113      	bne.n	80030ea <HAL_ADC_PollForConversion+0x46>
      HAL_IS_BIT_SET(hadc->Instance->CR2, ADC_CR2_DMA))
 80030c2:	687b      	ldr	r3, [r7, #4]
 80030c4:	681b      	ldr	r3, [r3, #0]
 80030c6:	689b      	ldr	r3, [r3, #8]
 80030c8:	f403 7380 	and.w	r3, r3, #256	@ 0x100
  if (HAL_IS_BIT_SET(hadc->Instance->CR2, ADC_CR2_EOCS) &&
 80030cc:	f5b3 7f80 	cmp.w	r3, #256	@ 0x100
 80030d0:	d10b      	bne.n	80030ea <HAL_ADC_PollForConversion+0x46>
  {
    /* Update ADC state machine to error */
    SET_BIT(hadc->State, HAL_ADC_STATE_ERROR_CONFIG);
 80030d2:	687b      	ldr	r3, [r7, #4]
 80030d4:	6c1b      	ldr	r3, [r3, #64]	@ 0x40
 80030d6:	f043 0220 	orr.w	r2, r3, #32
 80030da:	687b      	ldr	r3, [r7, #4]
 80030dc:	641a      	str	r2, [r3, #64]	@ 0x40

    /* Process unlocked */
    __HAL_UNLOCK(hadc);
 80030de:	687b      	ldr	r3, [r7, #4]
 80030e0:	2200      	movs	r2, #0
 80030e2:	f883 203c 	strb.w	r2, [r3, #60]	@ 0x3c

    return HAL_ERROR;
 80030e6:	2301      	movs	r3, #1
 80030e8:	e063      	b.n	80031b2 <HAL_ADC_PollForConversion+0x10e>
  }

  /* Get tick */
  tickstart = HAL_GetTick();
 80030ea:	f7ff fe95 	bl	8002e18 <HAL_GetTick>
 80030ee:	60f8      	str	r0, [r7, #12]

  /* Check End of conversion flag */
  while (!(__HAL_ADC_GET_FLAG(hadc, ADC_FLAG_EOC)))
 80030f0:	e021      	b.n	8003136 <HAL_ADC_PollForConversion+0x92>
  {
    /* Check if timeout is disabled (set to infinite wait) */
    if (Timeout != HAL_MAX_DELAY)
 80030f2:	683b      	ldr	r3, [r7, #0]
 80030f4:	f1b3 3fff 	cmp.w	r3, #4294967295	@ 0xffffffff
 80030f8:	d01d      	beq.n	8003136 <HAL_ADC_PollForConversion+0x92>
    {
      if ((Timeout == 0U) || ((HAL_GetTick() - tickstart) > Timeout))
 80030fa:	683b      	ldr	r3, [r7, #0]
 80030fc:	2b00      	cmp	r3, #0
 80030fe:	d007      	beq.n	8003110 <HAL_ADC_PollForConversion+0x6c>
 8003100:	f7ff fe8a 	bl	8002e18 <HAL_GetTick>
 8003104:	4602      	mov	r2, r0
 8003106:	68fb      	ldr	r3, [r7, #12]
 8003108:	1ad3      	subs	r3, r2, r3
 800310a:	683a      	ldr	r2, [r7, #0]
 800310c:	429a      	cmp	r2, r3
 800310e:	d212      	bcs.n	8003136 <HAL_ADC_PollForConversion+0x92>
      {
        /* New check to avoid false timeout detection in case of preemption */
        if (!(__HAL_ADC_GET_FLAG(hadc, ADC_FLAG_EOC)))
 8003110:	687b      	ldr	r3, [r7, #4]
 8003112:	681b      	ldr	r3, [r3, #0]
 8003114:	681b      	ldr	r3, [r3, #0]
 8003116:	f003 0302 	and.w	r3, r3, #2
 800311a:	2b02      	cmp	r3, #2
 800311c:	d00b      	beq.n	8003136 <HAL_ADC_PollForConversion+0x92>
        {
          /* Update ADC state machine to timeout */
          SET_BIT(hadc->State, HAL_ADC_STATE_TIMEOUT);
 800311e:	687b      	ldr	r3, [r7, #4]
 8003120:	6c1b      	ldr	r3, [r3, #64]	@ 0x40
 8003122:	f043 0204 	orr.w	r2, r3, #4
 8003126:	687b      	ldr	r3, [r7, #4]
 8003128:	641a      	str	r2, [r3, #64]	@ 0x40

          /* Process unlocked */
          __HAL_UNLOCK(hadc);
 800312a:	687b      	ldr	r3, [r7, #4]
 800312c:	2200      	movs	r2, #0
 800312e:	f883 203c 	strb.w	r2, [r3, #60]	@ 0x3c

          return HAL_TIMEOUT;
 8003132:	2303      	movs	r3, #3
 8003134:	e03d      	b.n	80031b2 <HAL_ADC_PollForConversion+0x10e>
  while (!(__HAL_ADC_GET_FLAG(hadc, ADC_FLAG_EOC)))
 8003136:	687b      	ldr	r3, [r7, #4]
 8003138:	681b      	ldr	r3, [r3, #0]
 800313a:	681b      	ldr	r3, [r3, #0]
 800313c:	f003 0302 	and.w	r3, r3, #2
 8003140:	2b02      	cmp	r3, #2
 8003142:	d1d6      	bne.n	80030f2 <HAL_ADC_PollForConversion+0x4e>
      }
    }
  }

  /* Clear regular group conversion flag */
  __HAL_ADC_CLEAR_FLAG(hadc, ADC_FLAG_STRT | ADC_FLAG_EOC);
 8003144:	687b      	ldr	r3, [r7, #4]
 8003146:	681b      	ldr	r3, [r3, #0]
 8003148:	f06f 0212 	mvn.w	r2, #18
 800314c:	601a      	str	r2, [r3, #0]

  /* Update ADC state machine */
  SET_BIT(hadc->State, HAL_ADC_STATE_REG_EOC);
 800314e:	687b      	ldr	r3, [r7, #4]
 8003150:	6c1b      	ldr	r3, [r3, #64]	@ 0x40
 8003152:	f443 7200 	orr.w	r2, r3, #512	@ 0x200
 8003156:	687b      	ldr	r3, [r7, #4]
 8003158:	641a      	str	r2, [r3, #64]	@ 0x40
  /* by external trigger, continuous mode or scan sequence on going.          */
  /* Note: On STM32F4, there is no independent flag of end of sequence.       */
  /*       The test of scan sequence on going is done either with scan        */
  /*       sequence disabled or with end of conversion flag set to            */
  /*       of end of sequence.                                                */
  if (ADC_IS_SOFTWARE_START_REGULAR(hadc)                   &&
 800315a:	687b      	ldr	r3, [r7, #4]
 800315c:	681b      	ldr	r3, [r3, #0]
 800315e:	689b      	ldr	r3, [r3, #8]
 8003160:	f003 5340 	and.w	r3, r3, #805306368	@ 0x30000000
 8003164:	2b00      	cmp	r3, #0
 8003166:	d123      	bne.n	80031b0 <HAL_ADC_PollForConversion+0x10c>
      (hadc->Init.ContinuousConvMode == DISABLE)            &&
 8003168:	687b      	ldr	r3, [r7, #4]
 800316a:	7e1b      	ldrb	r3, [r3, #24]
  if (ADC_IS_SOFTWARE_START_REGULAR(hadc)                   &&
 800316c:	2b00      	cmp	r3, #0
 800316e:	d11f      	bne.n	80031b0 <HAL_ADC_PollForConversion+0x10c>
      (HAL_IS_BIT_CLR(hadc->Instance->SQR1, ADC_SQR1_L) ||
 8003170:	687b      	ldr	r3, [r7, #4]
 8003172:	681b      	ldr	r3, [r3, #0]
 8003174:	6adb      	ldr	r3, [r3, #44]	@ 0x2c
 8003176:	f403 0370 	and.w	r3, r3, #15728640	@ 0xf00000
      (hadc->Init.ContinuousConvMode == DISABLE)            &&
 800317a:	2b00      	cmp	r3, #0
 800317c:	d006      	beq.n	800318c <HAL_ADC_PollForConversion+0xe8>
       HAL_IS_BIT_CLR(hadc->Instance->CR2, ADC_CR2_EOCS)))
 800317e:	687b      	ldr	r3, [r7, #4]
 8003180:	681b      	ldr	r3, [r3, #0]
 8003182:	689b      	ldr	r3, [r3, #8]
 8003184:	f403 6380 	and.w	r3, r3, #1024	@ 0x400
      (HAL_IS_BIT_CLR(hadc->Instance->SQR1, ADC_SQR1_L) ||
 8003188:	2b00      	cmp	r3, #0
 800318a:	d111      	bne.n	80031b0 <HAL_ADC_PollForConversion+0x10c>
  {
    /* Set ADC state */
    CLEAR_BIT(hadc->State, HAL_ADC_STATE_REG_BUSY);
 800318c:	687b      	ldr	r3, [r7, #4]
 800318e:	6c1b      	ldr	r3, [r3, #64]	@ 0x40
 8003190:	f423 7280 	bic.w	r2, r3, #256	@ 0x100
 8003194:	687b      	ldr	r3, [r7, #4]
 8003196:	641a      	str	r2, [r3, #64]	@ 0x40

    if (HAL_IS_BIT_CLR(hadc->State, HAL_ADC_STATE_INJ_BUSY))
 8003198:	687b      	ldr	r3, [r7, #4]
 800319a:	6c1b      	ldr	r3, [r3, #64]	@ 0x40
 800319c:	f403 5380 	and.w	r3, r3, #4096	@ 0x1000
 80031a0:	2b00      	cmp	r3, #0
 80031a2:	d105      	bne.n	80031b0 <HAL_ADC_PollForConversion+0x10c>
    {
      SET_BIT(hadc->State, HAL_ADC_STATE_READY);
 80031a4:	687b      	ldr	r3, [r7, #4]
 80031a6:	6c1b      	ldr	r3, [r3, #64]	@ 0x40
 80031a8:	f043 0201 	orr.w	r2, r3, #1
 80031ac:	687b      	ldr	r3, [r7, #4]
 80031ae:	641a      	str	r2, [r3, #64]	@ 0x40
    }
  }

  /* Return ADC state */
  return HAL_OK;
 80031b0:	2300      	movs	r3, #0
}
 80031b2:	4618      	mov	r0, r3
 80031b4:	3710      	adds	r7, #16
 80031b6:	46bd      	mov	sp, r7
 80031b8:	bd80      	pop	{r7, pc}

080031ba <HAL_ADC_GetValue>:
  * @param  hadc pointer to a ADC_HandleTypeDef structure that contains
  *         the configuration information for the specified ADC.
  * @retval Converted value
  */
uint32_t HAL_ADC_GetValue(ADC_HandleTypeDef *hadc)
{
 80031ba:	b480      	push	{r7}
 80031bc:	b083      	sub	sp, #12
 80031be:	af00      	add	r7, sp, #0
 80031c0:	6078      	str	r0, [r7, #4]
  /* Return the selected ADC converted value */
  return hadc->Instance->DR;
 80031c2:	687b      	ldr	r3, [r7, #4]
 80031c4:	681b      	ldr	r3, [r3, #0]
 80031c6:	6cdb      	ldr	r3, [r3, #76]	@ 0x4c
}
 80031c8:	4618      	mov	r0, r3
 80031ca:	370c      	adds	r7, #12
 80031cc:	46bd      	mov	sp, r7
 80031ce:	f85d 7b04 	ldr.w	r7, [sp], #4
 80031d2:	4770      	bx	lr

080031d4 <HAL_ADC_ConfigChannel>:
*         the configuration information for the specified ADC.
* @param  sConfig ADC configuration structure.
* @retval HAL status
*/
HAL_StatusTypeDef HAL_ADC_ConfigChannel(ADC_HandleTypeDef *hadc, ADC_ChannelConfTypeDef *sConfig)
{
 80031d4:	b480      	push	{r7}
 80031d6:	b085      	sub	sp, #20
 80031d8:	af00      	add	r7, sp, #0
 80031da:	6078      	str	r0, [r7, #4]
 80031dc:	6039      	str	r1, [r7, #0]
  __IO uint32_t counter = 0U;
 80031de:	2300      	movs	r3, #0
 80031e0:	60bb      	str	r3, [r7, #8]
  assert_param(IS_ADC_CHANNEL(sConfig->Channel));
  assert_param(IS_ADC_REGULAR_RANK(sConfig->Rank));
  assert_param(IS_ADC_SAMPLE_TIME(sConfig->SamplingTime));

  /* Process locked */
  __HAL_LOCK(hadc);
 80031e2:	687b      	ldr	r3, [r7, #4]
 80031e4:	f893 303c 	ldrb.w	r3, [r3, #60]	@ 0x3c
 80031e8:	2b01      	cmp	r3, #1
 80031ea:	d101      	bne.n	80031f0 <HAL_ADC_ConfigChannel+0x1c>
 80031ec:	2302      	movs	r3, #2
 80031ee:	e113      	b.n	8003418 <HAL_ADC_ConfigChannel+0x244>
 80031f0:	687b      	ldr	r3, [r7, #4]
 80031f2:	2201      	movs	r2, #1
 80031f4:	f883 203c 	strb.w	r2, [r3, #60]	@ 0x3c

  /* if ADC_Channel_10 ... ADC_Channel_18 is selected */
  if (sConfig->Channel > ADC_CHANNEL_9)
 80031f8:	683b      	ldr	r3, [r7, #0]
 80031fa:	681b      	ldr	r3, [r3, #0]
 80031fc:	2b09      	cmp	r3, #9
 80031fe:	d925      	bls.n	800324c <HAL_ADC_ConfigChannel+0x78>
  {
    /* Clear the old sample time */
    hadc->Instance->SMPR1 &= ~ADC_SMPR1(ADC_SMPR1_SMP10, sConfig->Channel);
 8003200:	687b      	ldr	r3, [r7, #4]
 8003202:	681b      	ldr	r3, [r3, #0]
 8003204:	68d9      	ldr	r1, [r3, #12]
 8003206:	683b      	ldr	r3, [r7, #0]
 8003208:	681b      	ldr	r3, [r3, #0]
 800320a:	b29b      	uxth	r3, r3
 800320c:	461a      	mov	r2, r3
 800320e:	4613      	mov	r3, r2
 8003210:	005b      	lsls	r3, r3, #1
 8003212:	4413      	add	r3, r2
 8003214:	3b1e      	subs	r3, #30
 8003216:	2207      	movs	r2, #7
 8003218:	fa02 f303 	lsl.w	r3, r2, r3
 800321c:	43da      	mvns	r2, r3
 800321e:	687b      	ldr	r3, [r7, #4]
 8003220:	681b      	ldr	r3, [r3, #0]
 8003222:	400a      	ands	r2, r1
 8003224:	60da      	str	r2, [r3, #12]

    /* Set the new sample time */
    hadc->Instance->SMPR1 |= ADC_SMPR1(sConfig->SamplingTime, sConfig->Channel);
 8003226:	687b      	ldr	r3, [r7, #4]
 8003228:	681b      	ldr	r3, [r3, #0]
 800322a:	68d9      	ldr	r1, [r3, #12]
 800322c:	683b      	ldr	r3, [r7, #0]
 800322e:	689a      	ldr	r2, [r3, #8]
 8003230:	683b      	ldr	r3, [r7, #0]
 8003232:	681b      	ldr	r3, [r3, #0]
 8003234:	b29b      	uxth	r3, r3
 8003236:	4618      	mov	r0, r3
 8003238:	4603      	mov	r3, r0
 800323a:	005b      	lsls	r3, r3, #1
 800323c:	4403      	add	r3, r0
 800323e:	3b1e      	subs	r3, #30
 8003240:	409a      	lsls	r2, r3
 8003242:	687b      	ldr	r3, [r7, #4]
 8003244:	681b      	ldr	r3, [r3, #0]
 8003246:	430a      	orrs	r2, r1
 8003248:	60da      	str	r2, [r3, #12]
 800324a:	e022      	b.n	8003292 <HAL_ADC_ConfigChannel+0xbe>
  }
  else /* ADC_Channel include in ADC_Channel_[0..9] */
  {
    /* Clear the old sample time */
    hadc->Instance->SMPR2 &= ~ADC_SMPR2(ADC_SMPR2_SMP0, sConfig->Channel);
 800324c:	687b      	ldr	r3, [r7, #4]
 800324e:	681b      	ldr	r3, [r3, #0]
 8003250:	6919      	ldr	r1, [r3, #16]
 8003252:	683b      	ldr	r3, [r7, #0]
 8003254:	681b      	ldr	r3, [r3, #0]
 8003256:	b29b      	uxth	r3, r3
 8003258:	461a      	mov	r2, r3
 800325a:	4613      	mov	r3, r2
 800325c:	005b      	lsls	r3, r3, #1
 800325e:	4413      	add	r3, r2
 8003260:	2207      	movs	r2, #7
 8003262:	fa02 f303 	lsl.w	r3, r2, r3
 8003266:	43da      	mvns	r2, r3
 8003268:	687b      	ldr	r3, [r7, #4]
 800326a:	681b      	ldr	r3, [r3, #0]
 800326c:	400a      	ands	r2, r1
 800326e:	611a      	str	r2, [r3, #16]

    /* Set the new sample time */
    hadc->Instance->SMPR2 |= ADC_SMPR2(sConfig->SamplingTime, sConfig->Channel);
 8003270:	687b      	ldr	r3, [r7, #4]
 8003272:	681b      	ldr	r3, [r3, #0]
 8003274:	6919      	ldr	r1, [r3, #16]
 8003276:	683b      	ldr	r3, [r7, #0]
 8003278:	689a      	ldr	r2, [r3, #8]
 800327a:	683b      	ldr	r3, [r7, #0]
 800327c:	681b      	ldr	r3, [r3, #0]
 800327e:	b29b      	uxth	r3, r3
 8003280:	4618      	mov	r0, r3
 8003282:	4603      	mov	r3, r0
 8003284:	005b      	lsls	r3, r3, #1
 8003286:	4403      	add	r3, r0
 8003288:	409a      	lsls	r2, r3
 800328a:	687b      	ldr	r3, [r7, #4]
 800328c:	681b      	ldr	r3, [r3, #0]
 800328e:	430a      	orrs	r2, r1
 8003290:	611a      	str	r2, [r3, #16]
  }

  /* For Rank 1 to 6 */
  if (sConfig->Rank < 7U)
 8003292:	683b      	ldr	r3, [r7, #0]
 8003294:	685b      	ldr	r3, [r3, #4]
 8003296:	2b06      	cmp	r3, #6
 8003298:	d824      	bhi.n	80032e4 <HAL_ADC_ConfigChannel+0x110>
  {
    /* Clear the old SQx bits for the selected rank */
    hadc->Instance->SQR3 &= ~ADC_SQR3_RK(ADC_SQR3_SQ1, sConfig->Rank);
 800329a:	687b      	ldr	r3, [r7, #4]
 800329c:	681b      	ldr	r3, [r3, #0]
 800329e:	6b59      	ldr	r1, [r3, #52]	@ 0x34
 80032a0:	683b      	ldr	r3, [r7, #0]
 80032a2:	685a      	ldr	r2, [r3, #4]
 80032a4:	4613      	mov	r3, r2
 80032a6:	009b      	lsls	r3, r3, #2
 80032a8:	4413      	add	r3, r2
 80032aa:	3b05      	subs	r3, #5
 80032ac:	221f      	movs	r2, #31
 80032ae:	fa02 f303 	lsl.w	r3, r2, r3
 80032b2:	43da      	mvns	r2, r3
 80032b4:	687b      	ldr	r3, [r7, #4]
 80032b6:	681b      	ldr	r3, [r3, #0]
 80032b8:	400a      	ands	r2, r1
 80032ba:	635a      	str	r2, [r3, #52]	@ 0x34

    /* Set the SQx bits for the selected rank */
    hadc->Instance->SQR3 |= ADC_SQR3_RK(sConfig->Channel, sConfig->Rank);
 80032bc:	687b      	ldr	r3, [r7, #4]
 80032be:	681b      	ldr	r3, [r3, #0]
 80032c0:	6b59      	ldr	r1, [r3, #52]	@ 0x34
 80032c2:	683b      	ldr	r3, [r7, #0]
 80032c4:	681b      	ldr	r3, [r3, #0]
 80032c6:	b29b      	uxth	r3, r3
 80032c8:	4618      	mov	r0, r3
 80032ca:	683b      	ldr	r3, [r7, #0]
 80032cc:	685a      	ldr	r2, [r3, #4]
 80032ce:	4613      	mov	r3, r2
 80032d0:	009b      	lsls	r3, r3, #2
 80032d2:	4413      	add	r3, r2
 80032d4:	3b05      	subs	r3, #5
 80032d6:	fa00 f203 	lsl.w	r2, r0, r3
 80032da:	687b      	ldr	r3, [r7, #4]
 80032dc:	681b      	ldr	r3, [r3, #0]
 80032de:	430a      	orrs	r2, r1
 80032e0:	635a      	str	r2, [r3, #52]	@ 0x34
 80032e2:	e04c      	b.n	800337e <HAL_ADC_ConfigChannel+0x1aa>
  }
  /* For Rank 7 to 12 */
  else if (sConfig->Rank < 13U)
 80032e4:	683b      	ldr	r3, [r7, #0]
 80032e6:	685b      	ldr	r3, [r3, #4]
 80032e8:	2b0c      	cmp	r3, #12
 80032ea:	d824      	bhi.n	8003336 <HAL_ADC_ConfigChannel+0x162>
  {
    /* Clear the old SQx bits for the selected rank */
    hadc->Instance->SQR2 &= ~ADC_SQR2_RK(ADC_SQR2_SQ7, sConfig->Rank);
 80032ec:	687b      	ldr	r3, [r7, #4]
 80032ee:	681b      	ldr	r3, [r3, #0]
 80032f0:	6b19      	ldr	r1, [r3, #48]	@ 0x30
 80032f2:	683b      	ldr	r3, [r7, #0]
 80032f4:	685a      	ldr	r2, [r3, #4]
 80032f6:	4613      	mov	r3, r2
 80032f8:	009b      	lsls	r3, r3, #2
 80032fa:	4413      	add	r3, r2
 80032fc:	3b23      	subs	r3, #35	@ 0x23
 80032fe:	221f      	movs	r2, #31
 8003300:	fa02 f303 	lsl.w	r3, r2, r3
 8003304:	43da      	mvns	r2, r3
 8003306:	687b      	ldr	r3, [r7, #4]
 8003308:	681b      	ldr	r3, [r3, #0]
 800330a:	400a      	ands	r2, r1
 800330c:	631a      	str	r2, [r3, #48]	@ 0x30

    /* Set the SQx bits for the selected rank */
    hadc->Instance->SQR2 |= ADC_SQR2_RK(sConfig->Channel, sConfig->Rank);
 800330e:	687b      	ldr	r3, [r7, #4]
 8003310:	681b      	ldr	r3, [r3, #0]
 8003312:	6b19      	ldr	r1, [r3, #48]	@ 0x30
 8003314:	683b      	ldr	r3, [r7, #0]
 8003316:	681b      	ldr	r3, [r3, #0]
 8003318:	b29b      	uxth	r3, r3
 800331a:	4618      	mov	r0, r3
 800331c:	683b      	ldr	r3, [r7, #0]
 800331e:	685a      	ldr	r2, [r3, #4]
 8003320:	4613      	mov	r3, r2
 8003322:	009b      	lsls	r3, r3, #2
 8003324:	4413      	add	r3, r2
 8003326:	3b23      	subs	r3, #35	@ 0x23
 8003328:	fa00 f203 	lsl.w	r2, r0, r3
 800332c:	687b      	ldr	r3, [r7, #4]
 800332e:	681b      	ldr	r3, [r3, #0]
 8003330:	430a      	orrs	r2, r1
 8003332:	631a      	str	r2, [r3, #48]	@ 0x30
 8003334:	e023      	b.n	800337e <HAL_ADC_ConfigChannel+0x1aa>
  }
  /* For Rank 13 to 16 */
  else
  {
    /* Clear the old SQx bits for the selected rank */
    hadc->Instance->SQR1 &= ~ADC_SQR1_RK(ADC_SQR1_SQ13, sConfig->Rank);
 8003336:	687b      	ldr	r3, [r7, #4]
 8003338:	681b      	ldr	r3, [r3, #0]
 800333a:	6ad9      	ldr	r1, [r3, #44]	@ 0x2c
 800333c:	683b      	ldr	r3, [r7, #0]
 800333e:	685a      	ldr	r2, [r3, #4]
 8003340:	4613      	mov	r3, r2
 8003342:	009b      	lsls	r3, r3, #2
 8003344:	4413      	add	r3, r2
 8003346:	3b41      	subs	r3, #65	@ 0x41
 8003348:	221f      	movs	r2, #31
 800334a:	fa02 f303 	lsl.w	r3, r2, r3
 800334e:	43da      	mvns	r2, r3
 8003350:	687b      	ldr	r3, [r7, #4]
 8003352:	681b      	ldr	r3, [r3, #0]
 8003354:	400a      	ands	r2, r1
 8003356:	62da      	str	r2, [r3, #44]	@ 0x2c

    /* Set the SQx bits for the selected rank */
    hadc->Instance->SQR1 |= ADC_SQR1_RK(sConfig->Channel, sConfig->Rank);
 8003358:	687b      	ldr	r3, [r7, #4]
 800335a:	681b      	ldr	r3, [r3, #0]
 800335c:	6ad9      	ldr	r1, [r3, #44]	@ 0x2c
 800335e:	683b      	ldr	r3, [r7, #0]
 8003360:	681b      	ldr	r3, [r3, #0]
 8003362:	b29b      	uxth	r3, r3
 8003364:	4618      	mov	r0, r3
 8003366:	683b      	ldr	r3, [r7, #0]
 8003368:	685a      	ldr	r2, [r3, #4]
 800336a:	4613      	mov	r3, r2
 800336c:	009b      	lsls	r3, r3, #2
 800336e:	4413      	add	r3, r2
 8003370:	3b41      	subs	r3, #65	@ 0x41
 8003372:	fa00 f203 	lsl.w	r2, r0, r3
 8003376:	687b      	ldr	r3, [r7, #4]
 8003378:	681b      	ldr	r3, [r3, #0]
 800337a:	430a      	orrs	r2, r1
 800337c:	62da      	str	r2, [r3, #44]	@ 0x2c
  }

  /* Pointer to the common control register to which is belonging hadc    */
  /* (Depending on STM32F4 product, there may be up to 3 ADCs and 1 common */
  /* control register)                                                    */
  tmpADC_Common = ADC_COMMON_REGISTER(hadc);
 800337e:	4b29      	ldr	r3, [pc, #164]	@ (8003424 <HAL_ADC_ConfigChannel+0x250>)
 8003380:	60fb      	str	r3, [r7, #12]

  /* if ADC1 Channel_18 is selected for VBAT Channel ennable VBATE */
  if ((hadc->Instance == ADC1) && (sConfig->Channel == ADC_CHANNEL_VBAT))
 8003382:	687b      	ldr	r3, [r7, #4]
 8003384:	681b      	ldr	r3, [r3, #0]
 8003386:	4a28      	ldr	r2, [pc, #160]	@ (8003428 <HAL_ADC_ConfigChannel+0x254>)
 8003388:	4293      	cmp	r3, r2
 800338a:	d10f      	bne.n	80033ac <HAL_ADC_ConfigChannel+0x1d8>
 800338c:	683b      	ldr	r3, [r7, #0]
 800338e:	681b      	ldr	r3, [r3, #0]
 8003390:	2b12      	cmp	r3, #18
 8003392:	d10b      	bne.n	80033ac <HAL_ADC_ConfigChannel+0x1d8>
  {
    /* Disable the TEMPSENSOR channel in case of using board with multiplixed ADC_CHANNEL_VBAT & ADC_CHANNEL_TEMPSENSOR*/
    if ((uint16_t)ADC_CHANNEL_TEMPSENSOR == (uint16_t)ADC_CHANNEL_VBAT)
    {
      tmpADC_Common->CCR &= ~ADC_CCR_TSVREFE;
 8003394:	68fb      	ldr	r3, [r7, #12]
 8003396:	685b      	ldr	r3, [r3, #4]
 8003398:	f423 0200 	bic.w	r2, r3, #8388608	@ 0x800000
 800339c:	68fb      	ldr	r3, [r7, #12]
 800339e:	605a      	str	r2, [r3, #4]
    }
    /* Enable the VBAT channel*/
    tmpADC_Common->CCR |= ADC_CCR_VBATE;
 80033a0:	68fb      	ldr	r3, [r7, #12]
 80033a2:	685b      	ldr	r3, [r3, #4]
 80033a4:	f443 0280 	orr.w	r2, r3, #4194304	@ 0x400000
 80033a8:	68fb      	ldr	r3, [r7, #12]
 80033aa:	605a      	str	r2, [r3, #4]
  }

  /* if ADC1 Channel_16 or Channel_18 is selected for Temperature sensor or
     Channel_17 is selected for VREFINT enable TSVREFE */
  if ((hadc->Instance == ADC1) && ((sConfig->Channel == ADC_CHANNEL_TEMPSENSOR) || (sConfig->Channel == ADC_CHANNEL_VREFINT)))
 80033ac:	687b      	ldr	r3, [r7, #4]
 80033ae:	681b      	ldr	r3, [r3, #0]
 80033b0:	4a1d      	ldr	r2, [pc, #116]	@ (8003428 <HAL_ADC_ConfigChannel+0x254>)
 80033b2:	4293      	cmp	r3, r2
 80033b4:	d12b      	bne.n	800340e <HAL_ADC_ConfigChannel+0x23a>
 80033b6:	683b      	ldr	r3, [r7, #0]
 80033b8:	681b      	ldr	r3, [r3, #0]
 80033ba:	4a1c      	ldr	r2, [pc, #112]	@ (800342c <HAL_ADC_ConfigChannel+0x258>)
 80033bc:	4293      	cmp	r3, r2
 80033be:	d003      	beq.n	80033c8 <HAL_ADC_ConfigChannel+0x1f4>
 80033c0:	683b      	ldr	r3, [r7, #0]
 80033c2:	681b      	ldr	r3, [r3, #0]
 80033c4:	2b11      	cmp	r3, #17
 80033c6:	d122      	bne.n	800340e <HAL_ADC_ConfigChannel+0x23a>
  {
    /* Disable the VBAT channel in case of using board with multiplixed ADC_CHANNEL_VBAT & ADC_CHANNEL_TEMPSENSOR*/
    if ((uint16_t)ADC_CHANNEL_TEMPSENSOR == (uint16_t)ADC_CHANNEL_VBAT)
    {
      tmpADC_Common->CCR &= ~ADC_CCR_VBATE;
 80033c8:	68fb      	ldr	r3, [r7, #12]
 80033ca:	685b      	ldr	r3, [r3, #4]
 80033cc:	f423 0280 	bic.w	r2, r3, #4194304	@ 0x400000
 80033d0:	68fb      	ldr	r3, [r7, #12]
 80033d2:	605a      	str	r2, [r3, #4]
    }
    /* Enable the Temperature sensor and VREFINT channel*/
    tmpADC_Common->CCR |= ADC_CCR_TSVREFE;
 80033d4:	68fb      	ldr	r3, [r7, #12]
 80033d6:	685b      	ldr	r3, [r3, #4]
 80033d8:	f443 0200 	orr.w	r2, r3, #8388608	@ 0x800000
 80033dc:	68fb      	ldr	r3, [r7, #12]
 80033de:	605a      	str	r2, [r3, #4]

    if (sConfig->Channel == ADC_CHANNEL_TEMPSENSOR)
 80033e0:	683b      	ldr	r3, [r7, #0]
 80033e2:	681b      	ldr	r3, [r3, #0]
 80033e4:	4a11      	ldr	r2, [pc, #68]	@ (800342c <HAL_ADC_ConfigChannel+0x258>)
 80033e6:	4293      	cmp	r3, r2
 80033e8:	d111      	bne.n	800340e <HAL_ADC_ConfigChannel+0x23a>
    {
      /* Delay for temperature sensor stabilization time */
      /* Compute number of CPU cycles to wait for */
      counter = (ADC_TEMPSENSOR_DELAY_US * (SystemCoreClock / 1000000U));
 80033ea:	4b11      	ldr	r3, [pc, #68]	@ (8003430 <HAL_ADC_ConfigChannel+0x25c>)
 80033ec:	681b      	ldr	r3, [r3, #0]
 80033ee:	4a11      	ldr	r2, [pc, #68]	@ (8003434 <HAL_ADC_ConfigChannel+0x260>)
 80033f0:	fba2 2303 	umull	r2, r3, r2, r3
 80033f4:	0c9a      	lsrs	r2, r3, #18
 80033f6:	4613      	mov	r3, r2
 80033f8:	009b      	lsls	r3, r3, #2
 80033fa:	4413      	add	r3, r2
 80033fc:	005b      	lsls	r3, r3, #1
 80033fe:	60bb      	str	r3, [r7, #8]
      while (counter != 0U)
 8003400:	e002      	b.n	8003408 <HAL_ADC_ConfigChannel+0x234>
      {
        counter--;
 8003402:	68bb      	ldr	r3, [r7, #8]
 8003404:	3b01      	subs	r3, #1
 8003406:	60bb      	str	r3, [r7, #8]
      while (counter != 0U)
 8003408:	68bb      	ldr	r3, [r7, #8]
 800340a:	2b00      	cmp	r3, #0
 800340c:	d1f9      	bne.n	8003402 <HAL_ADC_ConfigChannel+0x22e>
      }
    }
  }

  /* Process unlocked */
  __HAL_UNLOCK(hadc);
 800340e:	687b      	ldr	r3, [r7, #4]
 8003410:	2200      	movs	r2, #0
 8003412:	f883 203c 	strb.w	r2, [r3, #60]	@ 0x3c

  /* Return function status */
  return HAL_OK;
 8003416:	2300      	movs	r3, #0
}
 8003418:	4618      	mov	r0, r3
 800341a:	3714      	adds	r7, #20
 800341c:	46bd      	mov	sp, r7
 800341e:	f85d 7b04 	ldr.w	r7, [sp], #4
 8003422:	4770      	bx	lr
 8003424:	40012300 	.word	0x40012300
 8003428:	40012000 	.word	0x40012000
 800342c:	10000012 	.word	0x10000012
 8003430:	20000428 	.word	0x20000428
 8003434:	431bde83 	.word	0x431bde83

08003438 <ADC_Init>:
  * @param  hadc pointer to a ADC_HandleTypeDef structure that contains
  *         the configuration information for the specified ADC.
  * @retval None
  */
static void ADC_Init(ADC_HandleTypeDef *hadc)
{
 8003438:	b480      	push	{r7}
 800343a:	b085      	sub	sp, #20
 800343c:	af00      	add	r7, sp, #0
 800343e:	6078      	str	r0, [r7, #4]

  /* Set ADC parameters */
  /* Pointer to the common control register to which is belonging hadc    */
  /* (Depending on STM32F4 product, there may be up to 3 ADCs and 1 common */
  /* control register)                                                    */
  tmpADC_Common = ADC_COMMON_REGISTER(hadc);
 8003440:	4b79      	ldr	r3, [pc, #484]	@ (8003628 <ADC_Init+0x1f0>)
 8003442:	60fb      	str	r3, [r7, #12]

  /* Set the ADC clock prescaler */
  tmpADC_Common->CCR &= ~(ADC_CCR_ADCPRE);
 8003444:	68fb      	ldr	r3, [r7, #12]
 8003446:	685b      	ldr	r3, [r3, #4]
 8003448:	f423 3240 	bic.w	r2, r3, #196608	@ 0x30000
 800344c:	68fb      	ldr	r3, [r7, #12]
 800344e:	605a      	str	r2, [r3, #4]
  tmpADC_Common->CCR |=  hadc->Init.ClockPrescaler;
 8003450:	68fb      	ldr	r3, [r7, #12]
 8003452:	685a      	ldr	r2, [r3, #4]
 8003454:	687b      	ldr	r3, [r7, #4]
 8003456:	685b      	ldr	r3, [r3, #4]
 8003458:	431a      	orrs	r2, r3
 800345a:	68fb      	ldr	r3, [r7, #12]
 800345c:	605a      	str	r2, [r3, #4]

  /* Set ADC scan mode */
  hadc->Instance->CR1 &= ~(ADC_CR1_SCAN);
 800345e:	687b      	ldr	r3, [r7, #4]
 8003460:	681b      	ldr	r3, [r3, #0]
 8003462:	685a      	ldr	r2, [r3, #4]
 8003464:	687b      	ldr	r3, [r7, #4]
 8003466:	681b      	ldr	r3, [r3, #0]
 8003468:	f422 7280 	bic.w	r2, r2, #256	@ 0x100
 800346c:	605a      	str	r2, [r3, #4]
  hadc->Instance->CR1 |=  ADC_CR1_SCANCONV(hadc->Init.ScanConvMode);
 800346e:	687b      	ldr	r3, [r7, #4]
 8003470:	681b      	ldr	r3, [r3, #0]
 8003472:	6859      	ldr	r1, [r3, #4]
 8003474:	687b      	ldr	r3, [r7, #4]
 8003476:	691b      	ldr	r3, [r3, #16]
 8003478:	021a      	lsls	r2, r3, #8
 800347a:	687b      	ldr	r3, [r7, #4]
 800347c:	681b      	ldr	r3, [r3, #0]
 800347e:	430a      	orrs	r2, r1
 8003480:	605a      	str	r2, [r3, #4]

  /* Set ADC resolution */
  hadc->Instance->CR1 &= ~(ADC_CR1_RES);
 8003482:	687b      	ldr	r3, [r7, #4]
 8003484:	681b      	ldr	r3, [r3, #0]
 8003486:	685a      	ldr	r2, [r3, #4]
 8003488:	687b      	ldr	r3, [r7, #4]
 800348a:	681b      	ldr	r3, [r3, #0]
 800348c:	f022 7240 	bic.w	r2, r2, #50331648	@ 0x3000000
 8003490:	605a      	str	r2, [r3, #4]
  hadc->Instance->CR1 |=  hadc->Init.Resolution;
 8003492:	687b      	ldr	r3, [r7, #4]
 8003494:	681b      	ldr	r3, [r3, #0]
 8003496:	6859      	ldr	r1, [r3, #4]
 8003498:	687b      	ldr	r3, [r7, #4]
 800349a:	689a      	ldr	r2, [r3, #8]
 800349c:	687b      	ldr	r3, [r7, #4]
 800349e:	681b      	ldr	r3, [r3, #0]
 80034a0:	430a      	orrs	r2, r1
 80034a2:	605a      	str	r2, [r3, #4]

  /* Set ADC data alignment */
  hadc->Instance->CR2 &= ~(ADC_CR2_ALIGN);
 80034a4:	687b      	ldr	r3, [r7, #4]
 80034a6:	681b      	ldr	r3, [r3, #0]
 80034a8:	689a      	ldr	r2, [r3, #8]
 80034aa:	687b      	ldr	r3, [r7, #4]
 80034ac:	681b      	ldr	r3, [r3, #0]
 80034ae:	f422 6200 	bic.w	r2, r2, #2048	@ 0x800
 80034b2:	609a      	str	r2, [r3, #8]
  hadc->Instance->CR2 |= hadc->Init.DataAlign;
 80034b4:	687b      	ldr	r3, [r7, #4]
 80034b6:	681b      	ldr	r3, [r3, #0]
 80034b8:	6899      	ldr	r1, [r3, #8]
 80034ba:	687b      	ldr	r3, [r7, #4]
 80034bc:	68da      	ldr	r2, [r3, #12]
 80034be:	687b      	ldr	r3, [r7, #4]
 80034c0:	681b      	ldr	r3, [r3, #0]
 80034c2:	430a      	orrs	r2, r1
 80034c4:	609a      	str	r2, [r3, #8]
  /* Enable external trigger if trigger selection is different of software  */
  /* start.                                                                 */
  /* Note: This configuration keeps the hardware feature of parameter       */
  /*       ExternalTrigConvEdge "trigger edge none" equivalent to           */
  /*       software start.                                                  */
  if (hadc->Init.ExternalTrigConv != ADC_SOFTWARE_START)
 80034c6:	687b      	ldr	r3, [r7, #4]
 80034c8:	6a9b      	ldr	r3, [r3, #40]	@ 0x28
 80034ca:	4a58      	ldr	r2, [pc, #352]	@ (800362c <ADC_Init+0x1f4>)
 80034cc:	4293      	cmp	r3, r2
 80034ce:	d022      	beq.n	8003516 <ADC_Init+0xde>
  {
    /* Select external trigger to start conversion */
    hadc->Instance->CR2 &= ~(ADC_CR2_EXTSEL);
 80034d0:	687b      	ldr	r3, [r7, #4]
 80034d2:	681b      	ldr	r3, [r3, #0]
 80034d4:	689a      	ldr	r2, [r3, #8]
 80034d6:	687b      	ldr	r3, [r7, #4]
 80034d8:	681b      	ldr	r3, [r3, #0]
 80034da:	f022 6270 	bic.w	r2, r2, #251658240	@ 0xf000000
 80034de:	609a      	str	r2, [r3, #8]
    hadc->Instance->CR2 |= hadc->Init.ExternalTrigConv;
 80034e0:	687b      	ldr	r3, [r7, #4]
 80034e2:	681b      	ldr	r3, [r3, #0]
 80034e4:	6899      	ldr	r1, [r3, #8]
 80034e6:	687b      	ldr	r3, [r7, #4]
 80034e8:	6a9a      	ldr	r2, [r3, #40]	@ 0x28
 80034ea:	687b      	ldr	r3, [r7, #4]
 80034ec:	681b      	ldr	r3, [r3, #0]
 80034ee:	430a      	orrs	r2, r1
 80034f0:	609a      	str	r2, [r3, #8]

    /* Select external trigger polarity */
    hadc->Instance->CR2 &= ~(ADC_CR2_EXTEN);
 80034f2:	687b      	ldr	r3, [r7, #4]
 80034f4:	681b      	ldr	r3, [r3, #0]
 80034f6:	689a      	ldr	r2, [r3, #8]
 80034f8:	687b      	ldr	r3, [r7, #4]
 80034fa:	681b      	ldr	r3, [r3, #0]
 80034fc:	f022 5240 	bic.w	r2, r2, #805306368	@ 0x30000000
 8003500:	609a      	str	r2, [r3, #8]
    hadc->Instance->CR2 |= hadc->Init.ExternalTrigConvEdge;
 8003502:	687b      	ldr	r3, [r7, #4]
 8003504:	681b      	ldr	r3, [r3, #0]
 8003506:	6899      	ldr	r1, [r3, #8]
 8003508:	687b      	ldr	r3, [r7, #4]
 800350a:	6ada      	ldr	r2, [r3, #44]	@ 0x2c
 800350c:	687b      	ldr	r3, [r7, #4]
 800350e:	681b      	ldr	r3, [r3, #0]
 8003510:	430a      	orrs	r2, r1
 8003512:	609a      	str	r2, [r3, #8]
 8003514:	e00f      	b.n	8003536 <ADC_Init+0xfe>
  }
  else
  {
    /* Reset the external trigger */
    hadc->Instance->CR2 &= ~(ADC_CR2_EXTSEL);
 8003516:	687b      	ldr	r3, [r7, #4]
 8003518:	681b      	ldr	r3, [r3, #0]
 800351a:	689a      	ldr	r2, [r3, #8]
 800351c:	687b      	ldr	r3, [r7, #4]
 800351e:	681b      	ldr	r3, [r3, #0]
 8003520:	f022 6270 	bic.w	r2, r2, #251658240	@ 0xf000000
 8003524:	609a      	str	r2, [r3, #8]
    hadc->Instance->CR2 &= ~(ADC_CR2_EXTEN);
 8003526:	687b      	ldr	r3, [r7, #4]
 8003528:	681b      	ldr	r3, [r3, #0]
 800352a:	689a      	ldr	r2, [r3, #8]
 800352c:	687b      	ldr	r3, [r7, #4]
 800352e:	681b      	ldr	r3, [r3, #0]
 8003530:	f022 5240 	bic.w	r2, r2, #805306368	@ 0x30000000
 8003534:	609a      	str	r2, [r3, #8]
  }

  /* Enable or disable ADC continuous conversion mode */
  hadc->Instance->CR2 &= ~(ADC_CR2_CONT);
 8003536:	687b      	ldr	r3, [r7, #4]
 8003538:	681b      	ldr	r3, [r3, #0]
 800353a:	689a      	ldr	r2, [r3, #8]
 800353c:	687b      	ldr	r3, [r7, #4]
 800353e:	681b      	ldr	r3, [r3, #0]
 8003540:	f022 0202 	bic.w	r2, r2, #2
 8003544:	609a      	str	r2, [r3, #8]
  hadc->Instance->CR2 |= ADC_CR2_CONTINUOUS((uint32_t)hadc->Init.ContinuousConvMode);
 8003546:	687b      	ldr	r3, [r7, #4]
 8003548:	681b      	ldr	r3, [r3, #0]
 800354a:	6899      	ldr	r1, [r3, #8]
 800354c:	687b      	ldr	r3, [r7, #4]
 800354e:	7e1b      	ldrb	r3, [r3, #24]
 8003550:	005a      	lsls	r2, r3, #1
 8003552:	687b      	ldr	r3, [r7, #4]
 8003554:	681b      	ldr	r3, [r3, #0]
 8003556:	430a      	orrs	r2, r1
 8003558:	609a      	str	r2, [r3, #8]

  if (hadc->Init.DiscontinuousConvMode != DISABLE)
 800355a:	687b      	ldr	r3, [r7, #4]
 800355c:	f893 3020 	ldrb.w	r3, [r3, #32]
 8003560:	2b00      	cmp	r3, #0
 8003562:	d01b      	beq.n	800359c <ADC_Init+0x164>
  {
    assert_param(IS_ADC_REGULAR_DISC_NUMBER(hadc->Init.NbrOfDiscConversion));

    /* Enable the selected ADC regular discontinuous mode */
    hadc->Instance->CR1 |= (uint32_t)ADC_CR1_DISCEN;
 8003564:	687b      	ldr	r3, [r7, #4]
 8003566:	681b      	ldr	r3, [r3, #0]
 8003568:	685a      	ldr	r2, [r3, #4]
 800356a:	687b      	ldr	r3, [r7, #4]
 800356c:	681b      	ldr	r3, [r3, #0]
 800356e:	f442 6200 	orr.w	r2, r2, #2048	@ 0x800
 8003572:	605a      	str	r2, [r3, #4]

    /* Set the number of channels to be converted in discontinuous mode */
    hadc->Instance->CR1 &= ~(ADC_CR1_DISCNUM);
 8003574:	687b      	ldr	r3, [r7, #4]
 8003576:	681b      	ldr	r3, [r3, #0]
 8003578:	685a      	ldr	r2, [r3, #4]
 800357a:	687b      	ldr	r3, [r7, #4]
 800357c:	681b      	ldr	r3, [r3, #0]
 800357e:	f422 4260 	bic.w	r2, r2, #57344	@ 0xe000
 8003582:	605a      	str	r2, [r3, #4]
    hadc->Instance->CR1 |=  ADC_CR1_DISCONTINUOUS(hadc->Init.NbrOfDiscConversion);
 8003584:	687b      	ldr	r3, [r7, #4]
 8003586:	681b      	ldr	r3, [r3, #0]
 8003588:	6859      	ldr	r1, [r3, #4]
 800358a:	687b      	ldr	r3, [r7, #4]
 800358c:	6a5b      	ldr	r3, [r3, #36]	@ 0x24
 800358e:	3b01      	subs	r3, #1
 8003590:	035a      	lsls	r2, r3, #13
 8003592:	687b      	ldr	r3, [r7, #4]
 8003594:	681b      	ldr	r3, [r3, #0]
 8003596:	430a      	orrs	r2, r1
 8003598:	605a      	str	r2, [r3, #4]
 800359a:	e007      	b.n	80035ac <ADC_Init+0x174>
  }
  else
  {
    /* Disable the selected ADC regular discontinuous mode */
    hadc->Instance->CR1 &= ~(ADC_CR1_DISCEN);
 800359c:	687b      	ldr	r3, [r7, #4]
 800359e:	681b      	ldr	r3, [r3, #0]
 80035a0:	685a      	ldr	r2, [r3, #4]
 80035a2:	687b      	ldr	r3, [r7, #4]
 80035a4:	681b      	ldr	r3, [r3, #0]
 80035a6:	f422 6200 	bic.w	r2, r2, #2048	@ 0x800
 80035aa:	605a      	str	r2, [r3, #4]
  }

  /* Set ADC number of conversion */
  hadc->Instance->SQR1 &= ~(ADC_SQR1_L);
 80035ac:	687b      	ldr	r3, [r7, #4]
 80035ae:	681b      	ldr	r3, [r3, #0]
 80035b0:	6ada      	ldr	r2, [r3, #44]	@ 0x2c
 80035b2:	687b      	ldr	r3, [r7, #4]
 80035b4:	681b      	ldr	r3, [r3, #0]
 80035b6:	f422 0270 	bic.w	r2, r2, #15728640	@ 0xf00000
 80035ba:	62da      	str	r2, [r3, #44]	@ 0x2c
  hadc->Instance->SQR1 |=  ADC_SQR1(hadc->Init.NbrOfConversion);
 80035bc:	687b      	ldr	r3, [r7, #4]
 80035be:	681b      	ldr	r3, [r3, #0]
 80035c0:	6ad9      	ldr	r1, [r3, #44]	@ 0x2c
 80035c2:	687b      	ldr	r3, [r7, #4]
 80035c4:	69db      	ldr	r3, [r3, #28]
 80035c6:	3b01      	subs	r3, #1
 80035c8:	051a      	lsls	r2, r3, #20
 80035ca:	687b      	ldr	r3, [r7, #4]
 80035cc:	681b      	ldr	r3, [r3, #0]
 80035ce:	430a      	orrs	r2, r1
 80035d0:	62da      	str	r2, [r3, #44]	@ 0x2c

  /* Enable or disable ADC DMA continuous request */
  hadc->Instance->CR2 &= ~(ADC_CR2_DDS);
 80035d2:	687b      	ldr	r3, [r7, #4]
 80035d4:	681b      	ldr	r3, [r3, #0]
 80035d6:	689a      	ldr	r2, [r3, #8]
 80035d8:	687b      	ldr	r3, [r7, #4]
 80035da:	681b      	ldr	r3, [r3, #0]
 80035dc:	f422 7200 	bic.w	r2, r2, #512	@ 0x200
 80035e0:	609a      	str	r2, [r3, #8]
  hadc->Instance->CR2 |= ADC_CR2_DMAContReq((uint32_t)hadc->Init.DMAContinuousRequests);
 80035e2:	687b      	ldr	r3, [r7, #4]
 80035e4:	681b      	ldr	r3, [r3, #0]
 80035e6:	6899      	ldr	r1, [r3, #8]
 80035e8:	687b      	ldr	r3, [r7, #4]
 80035ea:	f893 3030 	ldrb.w	r3, [r3, #48]	@ 0x30
 80035ee:	025a      	lsls	r2, r3, #9
 80035f0:	687b      	ldr	r3, [r7, #4]
 80035f2:	681b      	ldr	r3, [r3, #0]
 80035f4:	430a      	orrs	r2, r1
 80035f6:	609a      	str	r2, [r3, #8]

  /* Enable or disable ADC end of conversion selection */
  hadc->Instance->CR2 &= ~(ADC_CR2_EOCS);
 80035f8:	687b      	ldr	r3, [r7, #4]
 80035fa:	681b      	ldr	r3, [r3, #0]
 80035fc:	689a      	ldr	r2, [r3, #8]
 80035fe:	687b      	ldr	r3, [r7, #4]
 8003600:	681b      	ldr	r3, [r3, #0]
 8003602:	f422 6280 	bic.w	r2, r2, #1024	@ 0x400
 8003606:	609a      	str	r2, [r3, #8]
  hadc->Instance->CR2 |= ADC_CR2_EOCSelection(hadc->Init.EOCSelection);
 8003608:	687b      	ldr	r3, [r7, #4]
 800360a:	681b      	ldr	r3, [r3, #0]
 800360c:	6899      	ldr	r1, [r3, #8]
 800360e:	687b      	ldr	r3, [r7, #4]
 8003610:	695b      	ldr	r3, [r3, #20]
 8003612:	029a      	lsls	r2, r3, #10
 8003614:	687b      	ldr	r3, [r7, #4]
 8003616:	681b      	ldr	r3, [r3, #0]
 8003618:	430a      	orrs	r2, r1
 800361a:	609a      	str	r2, [r3, #8]
}
 800361c:	bf00      	nop
 800361e:	3714      	adds	r7, #20
 8003620:	46bd      	mov	sp, r7
 8003622:	f85d 7b04 	ldr.w	r7, [sp], #4
 8003626:	4770      	bx	lr
 8003628:	40012300 	.word	0x40012300
 800362c:	0f000001 	.word	0x0f000001

08003630 <__NVIC_GetPriorityGrouping>:
{
 8003630:	b480      	push	{r7}
 8003632:	af00      	add	r7, sp, #0
  return ((uint32_t)((SCB->AIRCR & SCB_AIRCR_PRIGROUP_Msk) >> SCB_AIRCR_PRIGROUP_Pos));
 8003634:	4b04      	ldr	r3, [pc, #16]	@ (8003648 <__NVIC_GetPriorityGrouping+0x18>)
 8003636:	68db      	ldr	r3, [r3, #12]
 8003638:	0a1b      	lsrs	r3, r3, #8
 800363a:	f003 0307 	and.w	r3, r3, #7
}
 800363e:	4618      	mov	r0, r3
 8003640:	46bd      	mov	sp, r7
 8003642:	f85d 7b04 	ldr.w	r7, [sp], #4
 8003646:	4770      	bx	lr
 8003648:	e000ed00 	.word	0xe000ed00

0800364c <__NVIC_EnableIRQ>:
{
 800364c:	b480      	push	{r7}
 800364e:	b083      	sub	sp, #12
 8003650:	af00      	add	r7, sp, #0
 8003652:	4603      	mov	r3, r0
 8003654:	71fb      	strb	r3, [r7, #7]
  if ((int32_t)(IRQn) >= 0)
 8003656:	f997 3007 	ldrsb.w	r3, [r7, #7]
 800365a:	2b00      	cmp	r3, #0
 800365c:	db0b      	blt.n	8003676 <__NVIC_EnableIRQ+0x2a>
    NVIC->ISER[(((uint32_t)IRQn) >> 5UL)] = (uint32_t)(1UL << (((uint32_t)IRQn) & 0x1FUL));
 800365e:	79fb      	ldrb	r3, [r7, #7]
 8003660:	f003 021f 	and.w	r2, r3, #31
 8003664:	4907      	ldr	r1, [pc, #28]	@ (8003684 <__NVIC_EnableIRQ+0x38>)
 8003666:	f997 3007 	ldrsb.w	r3, [r7, #7]
 800366a:	095b      	lsrs	r3, r3, #5
 800366c:	2001      	movs	r0, #1
 800366e:	fa00 f202 	lsl.w	r2, r0, r2
 8003672:	f841 2023 	str.w	r2, [r1, r3, lsl #2]
}
 8003676:	bf00      	nop
 8003678:	370c      	adds	r7, #12
 800367a:	46bd      	mov	sp, r7
 800367c:	f85d 7b04 	ldr.w	r7, [sp], #4
 8003680:	4770      	bx	lr
 8003682:	bf00      	nop
 8003684:	e000e100 	.word	0xe000e100

08003688 <__NVIC_SetPriority>:
{
 8003688:	b480      	push	{r7}
 800368a:	b083      	sub	sp, #12
 800368c:	af00      	add	r7, sp, #0
 800368e:	4603      	mov	r3, r0
 8003690:	6039      	str	r1, [r7, #0]
 8003692:	71fb      	strb	r3, [r7, #7]
  if ((int32_t)(IRQn) >= 0)
 8003694:	f997 3007 	ldrsb.w	r3, [r7, #7]
 8003698:	2b00      	cmp	r3, #0
 800369a:	db0a      	blt.n	80036b2 <__NVIC_SetPriority+0x2a>
    NVIC->IP[((uint32_t)IRQn)]               = (uint8_t)((priority << (8U - __NVIC_PRIO_BITS)) & (uint32_t)0xFFUL);
 800369c:	683b      	ldr	r3, [r7, #0]
 800369e:	b2da      	uxtb	r2, r3
 80036a0:	490c      	ldr	r1, [pc, #48]	@ (80036d4 <__NVIC_SetPriority+0x4c>)
 80036a2:	f997 3007 	ldrsb.w	r3, [r7, #7]
 80036a6:	0112      	lsls	r2, r2, #4
 80036a8:	b2d2      	uxtb	r2, r2
 80036aa:	440b      	add	r3, r1
 80036ac:	f883 2300 	strb.w	r2, [r3, #768]	@ 0x300
}
 80036b0:	e00a      	b.n	80036c8 <__NVIC_SetPriority+0x40>
    SCB->SHP[(((uint32_t)IRQn) & 0xFUL)-4UL] = (uint8_t)((priority << (8U - __NVIC_PRIO_BITS)) & (uint32_t)0xFFUL);
 80036b2:	683b      	ldr	r3, [r7, #0]
 80036b4:	b2da      	uxtb	r2, r3
 80036b6:	4908      	ldr	r1, [pc, #32]	@ (80036d8 <__NVIC_SetPriority+0x50>)
 80036b8:	79fb      	ldrb	r3, [r7, #7]
 80036ba:	f003 030f 	and.w	r3, r3, #15
 80036be:	3b04      	subs	r3, #4
 80036c0:	0112      	lsls	r2, r2, #4
 80036c2:	b2d2      	uxtb	r2, r2
 80036c4:	440b      	add	r3, r1
 80036c6:	761a      	strb	r2, [r3, #24]
}
 80036c8:	bf00      	nop
 80036ca:	370c      	adds	r7, #12
 80036cc:	46bd      	mov	sp, r7
 80036ce:	f85d 7b04 	ldr.w	r7, [sp], #4
 80036d2:	4770      	bx	lr
 80036d4:	e000e100 	.word	0xe000e100
 80036d8:	e000ed00 	.word	0xe000ed00

080036dc <NVIC_EncodePriority>:
{
 80036dc:	b480      	push	{r7}
 80036de:	b089      	sub	sp, #36	@ 0x24
 80036e0:	af00      	add	r7, sp, #0
 80036e2:	60f8      	str	r0, [r7, #12]
 80036e4:	60b9      	str	r1, [r7, #8]
 80036e6:	607a      	str	r2, [r7, #4]
  uint32_t PriorityGroupTmp = (PriorityGroup & (uint32_t)0x07UL);   /* only values 0..7 are used          */
 80036e8:	68fb      	ldr	r3, [r7, #12]
 80036ea:	f003 0307 	and.w	r3, r3, #7
 80036ee:	61fb      	str	r3, [r7, #28]
  PreemptPriorityBits = ((7UL - PriorityGroupTmp) > (uint32_t)(__NVIC_PRIO_BITS)) ? (uint32_t)(__NVIC_PRIO_BITS) : (uint32_t)(7UL - PriorityGroupTmp);
 80036f0:	69fb      	ldr	r3, [r7, #28]
 80036f2:	f1c3 0307 	rsb	r3, r3, #7
 80036f6:	2b04      	cmp	r3, #4
 80036f8:	bf28      	it	cs
 80036fa:	2304      	movcs	r3, #4
 80036fc:	61bb      	str	r3, [r7, #24]
  SubPriorityBits     = ((PriorityGroupTmp + (uint32_t)(__NVIC_PRIO_BITS)) < (uint32_t)7UL) ? (uint32_t)0UL : (uint32_t)((PriorityGroupTmp - 7UL) + (uint32_t)(__NVIC_PRIO_BITS));
 80036fe:	69fb      	ldr	r3, [r7, #28]
 8003700:	3304      	adds	r3, #4
 8003702:	2b06      	cmp	r3, #6
 8003704:	d902      	bls.n	800370c <NVIC_EncodePriority+0x30>
 8003706:	69fb      	ldr	r3, [r7, #28]
 8003708:	3b03      	subs	r3, #3
 800370a:	e000      	b.n	800370e <NVIC_EncodePriority+0x32>
 800370c:	2300      	movs	r3, #0
 800370e:	617b      	str	r3, [r7, #20]
           ((PreemptPriority & (uint32_t)((1UL << (PreemptPriorityBits)) - 1UL)) << SubPriorityBits) |
 8003710:	f04f 32ff 	mov.w	r2, #4294967295	@ 0xffffffff
 8003714:	69bb      	ldr	r3, [r7, #24]
 8003716:	fa02 f303 	lsl.w	r3, r2, r3
 800371a:	43da      	mvns	r2, r3
 800371c:	68bb      	ldr	r3, [r7, #8]
 800371e:	401a      	ands	r2, r3
 8003720:	697b      	ldr	r3, [r7, #20]
 8003722:	409a      	lsls	r2, r3
           ((SubPriority     & (uint32_t)((1UL << (SubPriorityBits    )) - 1UL)))
 8003724:	f04f 31ff 	mov.w	r1, #4294967295	@ 0xffffffff
 8003728:	697b      	ldr	r3, [r7, #20]
 800372a:	fa01 f303 	lsl.w	r3, r1, r3
 800372e:	43d9      	mvns	r1, r3
 8003730:	687b      	ldr	r3, [r7, #4]
 8003732:	400b      	ands	r3, r1
           ((PreemptPriority & (uint32_t)((1UL << (PreemptPriorityBits)) - 1UL)) << SubPriorityBits) |
 8003734:	4313      	orrs	r3, r2
}
 8003736:	4618      	mov	r0, r3
 8003738:	3724      	adds	r7, #36	@ 0x24
 800373a:	46bd      	mov	sp, r7
 800373c:	f85d 7b04 	ldr.w	r7, [sp], #4
 8003740:	4770      	bx	lr

08003742 <HAL_NVIC_SetPriority>:
  *         This parameter can be a value between 0 and 15
  *         A lower priority value indicates a higher priority.          
  * @retval None
  */
void HAL_NVIC_SetPriority(IRQn_Type IRQn, uint32_t PreemptPriority, uint32_t SubPriority)
{ 
 8003742:	b580      	push	{r7, lr}
 8003744:	b086      	sub	sp, #24
 8003746:	af00      	add	r7, sp, #0
 8003748:	4603      	mov	r3, r0
 800374a:	60b9      	str	r1, [r7, #8]
 800374c:	607a      	str	r2, [r7, #4]
 800374e:	73fb      	strb	r3, [r7, #15]
  uint32_t prioritygroup = 0x00U;
 8003750:	2300      	movs	r3, #0
 8003752:	617b      	str	r3, [r7, #20]
  
  /* Check the parameters */
  assert_param(IS_NVIC_SUB_PRIORITY(SubPriority));
  assert_param(IS_NVIC_PREEMPTION_PRIORITY(PreemptPriority));
  
  prioritygroup = NVIC_GetPriorityGrouping();
 8003754:	f7ff ff6c 	bl	8003630 <__NVIC_GetPriorityGrouping>
 8003758:	6178      	str	r0, [r7, #20]
  
  NVIC_SetPriority(IRQn, NVIC_EncodePriority(prioritygroup, PreemptPriority, SubPriority));
 800375a:	687a      	ldr	r2, [r7, #4]
 800375c:	68b9      	ldr	r1, [r7, #8]
 800375e:	6978      	ldr	r0, [r7, #20]
 8003760:	f7ff ffbc 	bl	80036dc <NVIC_EncodePriority>
 8003764:	4602      	mov	r2, r0
 8003766:	f997 300f 	ldrsb.w	r3, [r7, #15]
 800376a:	4611      	mov	r1, r2
 800376c:	4618      	mov	r0, r3
 800376e:	f7ff ff8b 	bl	8003688 <__NVIC_SetPriority>
}
 8003772:	bf00      	nop
 8003774:	3718      	adds	r7, #24
 8003776:	46bd      	mov	sp, r7
 8003778:	bd80      	pop	{r7, pc}

0800377a <HAL_NVIC_EnableIRQ>:
  *         This parameter can be an enumerator of IRQn_Type enumeration
  *         (For the complete STM32 Devices IRQ Channels list, please refer to the appropriate CMSIS device file (stm32f4xxxx.h))
  * @retval None
  */
void HAL_NVIC_EnableIRQ(IRQn_Type IRQn)
{
 800377a:	b580      	push	{r7, lr}
 800377c:	b082      	sub	sp, #8
 800377e:	af00      	add	r7, sp, #0
 8003780:	4603      	mov	r3, r0
 8003782:	71fb      	strb	r3, [r7, #7]
  /* Check the parameters */
  assert_param(IS_NVIC_DEVICE_IRQ(IRQn));
  
  /* Enable interrupt */
  NVIC_EnableIRQ(IRQn);
 8003784:	f997 3007 	ldrsb.w	r3, [r7, #7]
 8003788:	4618      	mov	r0, r3
 800378a:	f7ff ff5f 	bl	800364c <__NVIC_EnableIRQ>
}
 800378e:	bf00      	nop
 8003790:	3708      	adds	r7, #8
 8003792:	46bd      	mov	sp, r7
 8003794:	bd80      	pop	{r7, pc}
	...

08003798 <HAL_GPIO_Init>:
  * @param  GPIO_Init pointer to a GPIO_InitTypeDef structure that contains
  *         the configuration information for the specified GPIO peripheral.
  * @retval None
  */
void HAL_GPIO_Init(GPIO_TypeDef  *GPIOx, GPIO_InitTypeDef *GPIO_Init)
{
 8003798:	b480      	push	{r7}
 800379a:	b089      	sub	sp, #36	@ 0x24
 800379c:	af00      	add	r7, sp, #0
 800379e:	6078      	str	r0, [r7, #4]
 80037a0:	6039      	str	r1, [r7, #0]
  uint32_t position;
  uint32_t ioposition = 0x00U;
 80037a2:	2300      	movs	r3, #0
 80037a4:	617b      	str	r3, [r7, #20]
  uint32_t iocurrent = 0x00U;
 80037a6:	2300      	movs	r3, #0
 80037a8:	613b      	str	r3, [r7, #16]
  uint32_t temp = 0x00U;
 80037aa:	2300      	movs	r3, #0
 80037ac:	61bb      	str	r3, [r7, #24]
  assert_param(IS_GPIO_ALL_INSTANCE(GPIOx));
  assert_param(IS_GPIO_PIN(GPIO_Init->Pin));
  assert_param(IS_GPIO_MODE(GPIO_Init->Mode));

  /* Configure the port pins */
  for(position = 0U; position < GPIO_NUMBER; position++)
 80037ae:	2300      	movs	r3, #0
 80037b0:	61fb      	str	r3, [r7, #28]
 80037b2:	e165      	b.n	8003a80 <HAL_GPIO_Init+0x2e8>
  {
    /* Get the IO position */
    ioposition = 0x01U << position;
 80037b4:	2201      	movs	r2, #1
 80037b6:	69fb      	ldr	r3, [r7, #28]
 80037b8:	fa02 f303 	lsl.w	r3, r2, r3
 80037bc:	617b      	str	r3, [r7, #20]
    /* Get the current IO position */
    iocurrent = (uint32_t)(GPIO_Init->Pin) & ioposition;
 80037be:	683b      	ldr	r3, [r7, #0]
 80037c0:	681b      	ldr	r3, [r3, #0]
 80037c2:	697a      	ldr	r2, [r7, #20]
 80037c4:	4013      	ands	r3, r2
 80037c6:	613b      	str	r3, [r7, #16]

    if(iocurrent == ioposition)
 80037c8:	693a      	ldr	r2, [r7, #16]
 80037ca:	697b      	ldr	r3, [r7, #20]
 80037cc:	429a      	cmp	r2, r3
 80037ce:	f040 8154 	bne.w	8003a7a <HAL_GPIO_Init+0x2e2>
    {
      /*--------------------- GPIO Mode Configuration ------------------------*/
      /* In case of Output or Alternate function mode selection */
      if(((GPIO_Init->Mode & GPIO_MODE) == MODE_OUTPUT) || \
 80037d2:	683b      	ldr	r3, [r7, #0]
 80037d4:	685b      	ldr	r3, [r3, #4]
 80037d6:	f003 0303 	and.w	r3, r3, #3
 80037da:	2b01      	cmp	r3, #1
 80037dc:	d005      	beq.n	80037ea <HAL_GPIO_Init+0x52>
          (GPIO_Init->Mode & GPIO_MODE) == MODE_AF)
 80037de:	683b      	ldr	r3, [r7, #0]
 80037e0:	685b      	ldr	r3, [r3, #4]
 80037e2:	f003 0303 	and.w	r3, r3, #3
      if(((GPIO_Init->Mode & GPIO_MODE) == MODE_OUTPUT) || \
 80037e6:	2b02      	cmp	r3, #2
 80037e8:	d130      	bne.n	800384c <HAL_GPIO_Init+0xb4>
      {
        /* Check the Speed parameter */
        assert_param(IS_GPIO_SPEED(GPIO_Init->Speed));
        /* Configure the IO Speed */
        temp = GPIOx->OSPEEDR; 
 80037ea:	687b      	ldr	r3, [r7, #4]
 80037ec:	689b      	ldr	r3, [r3, #8]
 80037ee:	61bb      	str	r3, [r7, #24]
        temp &= ~(GPIO_OSPEEDER_OSPEEDR0 << (position * 2U));
 80037f0:	69fb      	ldr	r3, [r7, #28]
 80037f2:	005b      	lsls	r3, r3, #1
 80037f4:	2203      	movs	r2, #3
 80037f6:	fa02 f303 	lsl.w	r3, r2, r3
 80037fa:	43db      	mvns	r3, r3
 80037fc:	69ba      	ldr	r2, [r7, #24]
 80037fe:	4013      	ands	r3, r2
 8003800:	61bb      	str	r3, [r7, #24]
        temp |= (GPIO_Init->Speed << (position * 2U));
 8003802:	683b      	ldr	r3, [r7, #0]
 8003804:	68da      	ldr	r2, [r3, #12]
 8003806:	69fb      	ldr	r3, [r7, #28]
 8003808:	005b      	lsls	r3, r3, #1
 800380a:	fa02 f303 	lsl.w	r3, r2, r3
 800380e:	69ba      	ldr	r2, [r7, #24]
 8003810:	4313      	orrs	r3, r2
 8003812:	61bb      	str	r3, [r7, #24]
        GPIOx->OSPEEDR = temp;
 8003814:	687b      	ldr	r3, [r7, #4]
 8003816:	69ba      	ldr	r2, [r7, #24]
 8003818:	609a      	str	r2, [r3, #8]

        /* Configure the IO Output Type */
        temp = GPIOx->OTYPER;
 800381a:	687b      	ldr	r3, [r7, #4]
 800381c:	685b      	ldr	r3, [r3, #4]
 800381e:	61bb      	str	r3, [r7, #24]
        temp &= ~(GPIO_OTYPER_OT_0 << position) ;
 8003820:	2201      	movs	r2, #1
 8003822:	69fb      	ldr	r3, [r7, #28]
 8003824:	fa02 f303 	lsl.w	r3, r2, r3
 8003828:	43db      	mvns	r3, r3
 800382a:	69ba      	ldr	r2, [r7, #24]
 800382c:	4013      	ands	r3, r2
 800382e:	61bb      	str	r3, [r7, #24]
        temp |= (((GPIO_Init->Mode & OUTPUT_TYPE) >> OUTPUT_TYPE_Pos) << position);
 8003830:	683b      	ldr	r3, [r7, #0]
 8003832:	685b      	ldr	r3, [r3, #4]
 8003834:	091b      	lsrs	r3, r3, #4
 8003836:	f003 0201 	and.w	r2, r3, #1
 800383a:	69fb      	ldr	r3, [r7, #28]
 800383c:	fa02 f303 	lsl.w	r3, r2, r3
 8003840:	69ba      	ldr	r2, [r7, #24]
 8003842:	4313      	orrs	r3, r2
 8003844:	61bb      	str	r3, [r7, #24]
        GPIOx->OTYPER = temp;
 8003846:	687b      	ldr	r3, [r7, #4]
 8003848:	69ba      	ldr	r2, [r7, #24]
 800384a:	605a      	str	r2, [r3, #4]
       }

      if((GPIO_Init->Mode & GPIO_MODE) != MODE_ANALOG)
 800384c:	683b      	ldr	r3, [r7, #0]
 800384e:	685b      	ldr	r3, [r3, #4]
 8003850:	f003 0303 	and.w	r3, r3, #3
 8003854:	2b03      	cmp	r3, #3
 8003856:	d017      	beq.n	8003888 <HAL_GPIO_Init+0xf0>
      {
        /* Check the parameters */
        assert_param(IS_GPIO_PULL(GPIO_Init->Pull));
        
        /* Activate the Pull-up or Pull down resistor for the current IO */
        temp = GPIOx->PUPDR;
 8003858:	687b      	ldr	r3, [r7, #4]
 800385a:	68db      	ldr	r3, [r3, #12]
 800385c:	61bb      	str	r3, [r7, #24]
        temp &= ~(GPIO_PUPDR_PUPDR0 << (position * 2U));
 800385e:	69fb      	ldr	r3, [r7, #28]
 8003860:	005b      	lsls	r3, r3, #1
 8003862:	2203      	movs	r2, #3
 8003864:	fa02 f303 	lsl.w	r3, r2, r3
 8003868:	43db      	mvns	r3, r3
 800386a:	69ba      	ldr	r2, [r7, #24]
 800386c:	4013      	ands	r3, r2
 800386e:	61bb      	str	r3, [r7, #24]
        temp |= ((GPIO_Init->Pull) << (position * 2U));
 8003870:	683b      	ldr	r3, [r7, #0]
 8003872:	689a      	ldr	r2, [r3, #8]
 8003874:	69fb      	ldr	r3, [r7, #28]
 8003876:	005b      	lsls	r3, r3, #1
 8003878:	fa02 f303 	lsl.w	r3, r2, r3
 800387c:	69ba      	ldr	r2, [r7, #24]
 800387e:	4313      	orrs	r3, r2
 8003880:	61bb      	str	r3, [r7, #24]
        GPIOx->PUPDR = temp;
 8003882:	687b      	ldr	r3, [r7, #4]
 8003884:	69ba      	ldr	r2, [r7, #24]
 8003886:	60da      	str	r2, [r3, #12]
      }

      /* In case of Alternate function mode selection */
      if((GPIO_Init->Mode & GPIO_MODE) == MODE_AF)
 8003888:	683b      	ldr	r3, [r7, #0]
 800388a:	685b      	ldr	r3, [r3, #4]
 800388c:	f003 0303 	and.w	r3, r3, #3
 8003890:	2b02      	cmp	r3, #2
 8003892:	d123      	bne.n	80038dc <HAL_GPIO_Init+0x144>
      {
        /* Check the Alternate function parameter */
        assert_param(IS_GPIO_AF(GPIO_Init->Alternate));
        /* Configure Alternate function mapped with the current IO */
        temp = GPIOx->AFR[position >> 3U];
 8003894:	69fb      	ldr	r3, [r7, #28]
 8003896:	08da      	lsrs	r2, r3, #3
 8003898:	687b      	ldr	r3, [r7, #4]
 800389a:	3208      	adds	r2, #8
 800389c:	f853 3022 	ldr.w	r3, [r3, r2, lsl #2]
 80038a0:	61bb      	str	r3, [r7, #24]
        temp &= ~(0xFU << ((uint32_t)(position & 0x07U) * 4U)) ;
 80038a2:	69fb      	ldr	r3, [r7, #28]
 80038a4:	f003 0307 	and.w	r3, r3, #7
 80038a8:	009b      	lsls	r3, r3, #2
 80038aa:	220f      	movs	r2, #15
 80038ac:	fa02 f303 	lsl.w	r3, r2, r3
 80038b0:	43db      	mvns	r3, r3
 80038b2:	69ba      	ldr	r2, [r7, #24]
 80038b4:	4013      	ands	r3, r2
 80038b6:	61bb      	str	r3, [r7, #24]
        temp |= ((uint32_t)(GPIO_Init->Alternate) << (((uint32_t)position & 0x07U) * 4U));
 80038b8:	683b      	ldr	r3, [r7, #0]
 80038ba:	691a      	ldr	r2, [r3, #16]
 80038bc:	69fb      	ldr	r3, [r7, #28]
 80038be:	f003 0307 	and.w	r3, r3, #7
 80038c2:	009b      	lsls	r3, r3, #2
 80038c4:	fa02 f303 	lsl.w	r3, r2, r3
 80038c8:	69ba      	ldr	r2, [r7, #24]
 80038ca:	4313      	orrs	r3, r2
 80038cc:	61bb      	str	r3, [r7, #24]
        GPIOx->AFR[position >> 3U] = temp;
 80038ce:	69fb      	ldr	r3, [r7, #28]
 80038d0:	08da      	lsrs	r2, r3, #3
 80038d2:	687b      	ldr	r3, [r7, #4]
 80038d4:	3208      	adds	r2, #8
 80038d6:	69b9      	ldr	r1, [r7, #24]
 80038d8:	f843 1022 	str.w	r1, [r3, r2, lsl #2]
      }

      /* Configure IO Direction mode (Input, Output, Alternate or Analog) */
      temp = GPIOx->MODER;
 80038dc:	687b      	ldr	r3, [r7, #4]
 80038de:	681b      	ldr	r3, [r3, #0]
 80038e0:	61bb      	str	r3, [r7, #24]
      temp &= ~(GPIO_MODER_MODER0 << (position * 2U));
 80038e2:	69fb      	ldr	r3, [r7, #28]
 80038e4:	005b      	lsls	r3, r3, #1
 80038e6:	2203      	movs	r2, #3
 80038e8:	fa02 f303 	lsl.w	r3, r2, r3
 80038ec:	43db      	mvns	r3, r3
 80038ee:	69ba      	ldr	r2, [r7, #24]
 80038f0:	4013      	ands	r3, r2
 80038f2:	61bb      	str	r3, [r7, #24]
      temp |= ((GPIO_Init->Mode & GPIO_MODE) << (position * 2U));
 80038f4:	683b      	ldr	r3, [r7, #0]
 80038f6:	685b      	ldr	r3, [r3, #4]
 80038f8:	f003 0203 	and.w	r2, r3, #3
 80038fc:	69fb      	ldr	r3, [r7, #28]
 80038fe:	005b      	lsls	r3, r3, #1
 8003900:	fa02 f303 	lsl.w	r3, r2, r3
 8003904:	69ba      	ldr	r2, [r7, #24]
 8003906:	4313      	orrs	r3, r2
 8003908:	61bb      	str	r3, [r7, #24]
      GPIOx->MODER = temp;
 800390a:	687b      	ldr	r3, [r7, #4]
 800390c:	69ba      	ldr	r2, [r7, #24]
 800390e:	601a      	str	r2, [r3, #0]

      /*--------------------- EXTI Mode Configuration ------------------------*/
      /* Configure the External Interrupt or event for the current IO */
      if((GPIO_Init->Mode & EXTI_MODE) != 0x00U)
 8003910:	683b      	ldr	r3, [r7, #0]
 8003912:	685b      	ldr	r3, [r3, #4]
 8003914:	f403 3340 	and.w	r3, r3, #196608	@ 0x30000
 8003918:	2b00      	cmp	r3, #0
 800391a:	f000 80ae 	beq.w	8003a7a <HAL_GPIO_Init+0x2e2>
      {
        /* Enable SYSCFG Clock */
        __HAL_RCC_SYSCFG_CLK_ENABLE();
 800391e:	2300      	movs	r3, #0
 8003920:	60fb      	str	r3, [r7, #12]
 8003922:	4b5d      	ldr	r3, [pc, #372]	@ (8003a98 <HAL_GPIO_Init+0x300>)
 8003924:	6c5b      	ldr	r3, [r3, #68]	@ 0x44
 8003926:	4a5c      	ldr	r2, [pc, #368]	@ (8003a98 <HAL_GPIO_Init+0x300>)
 8003928:	f443 4380 	orr.w	r3, r3, #16384	@ 0x4000
 800392c:	6453      	str	r3, [r2, #68]	@ 0x44
 800392e:	4b5a      	ldr	r3, [pc, #360]	@ (8003a98 <HAL_GPIO_Init+0x300>)
 8003930:	6c5b      	ldr	r3, [r3, #68]	@ 0x44
 8003932:	f403 4380 	and.w	r3, r3, #16384	@ 0x4000
 8003936:	60fb      	str	r3, [r7, #12]
 8003938:	68fb      	ldr	r3, [r7, #12]

        temp = SYSCFG->EXTICR[position >> 2U];
 800393a:	4a58      	ldr	r2, [pc, #352]	@ (8003a9c <HAL_GPIO_Init+0x304>)
 800393c:	69fb      	ldr	r3, [r7, #28]
 800393e:	089b      	lsrs	r3, r3, #2
 8003940:	3302      	adds	r3, #2
 8003942:	f852 3023 	ldr.w	r3, [r2, r3, lsl #2]
 8003946:	61bb      	str	r3, [r7, #24]
        temp &= ~(0x0FU << (4U * (position & 0x03U)));
 8003948:	69fb      	ldr	r3, [r7, #28]
 800394a:	f003 0303 	and.w	r3, r3, #3
 800394e:	009b      	lsls	r3, r3, #2
 8003950:	220f      	movs	r2, #15
 8003952:	fa02 f303 	lsl.w	r3, r2, r3
 8003956:	43db      	mvns	r3, r3
 8003958:	69ba      	ldr	r2, [r7, #24]
 800395a:	4013      	ands	r3, r2
 800395c:	61bb      	str	r3, [r7, #24]
        temp |= ((uint32_t)(GPIO_GET_INDEX(GPIOx)) << (4U * (position & 0x03U)));
 800395e:	687b      	ldr	r3, [r7, #4]
 8003960:	4a4f      	ldr	r2, [pc, #316]	@ (8003aa0 <HAL_GPIO_Init+0x308>)
 8003962:	4293      	cmp	r3, r2
 8003964:	d025      	beq.n	80039b2 <HAL_GPIO_Init+0x21a>
 8003966:	687b      	ldr	r3, [r7, #4]
 8003968:	4a4e      	ldr	r2, [pc, #312]	@ (8003aa4 <HAL_GPIO_Init+0x30c>)
 800396a:	4293      	cmp	r3, r2
 800396c:	d01f      	beq.n	80039ae <HAL_GPIO_Init+0x216>
 800396e:	687b      	ldr	r3, [r7, #4]
 8003970:	4a4d      	ldr	r2, [pc, #308]	@ (8003aa8 <HAL_GPIO_Init+0x310>)
 8003972:	4293      	cmp	r3, r2
 8003974:	d019      	beq.n	80039aa <HAL_GPIO_Init+0x212>
 8003976:	687b      	ldr	r3, [r7, #4]
 8003978:	4a4c      	ldr	r2, [pc, #304]	@ (8003aac <HAL_GPIO_Init+0x314>)
 800397a:	4293      	cmp	r3, r2
 800397c:	d013      	beq.n	80039a6 <HAL_GPIO_Init+0x20e>
 800397e:	687b      	ldr	r3, [r7, #4]
 8003980:	4a4b      	ldr	r2, [pc, #300]	@ (8003ab0 <HAL_GPIO_Init+0x318>)
 8003982:	4293      	cmp	r3, r2
 8003984:	d00d      	beq.n	80039a2 <HAL_GPIO_Init+0x20a>
 8003986:	687b      	ldr	r3, [r7, #4]
 8003988:	4a4a      	ldr	r2, [pc, #296]	@ (8003ab4 <HAL_GPIO_Init+0x31c>)
 800398a:	4293      	cmp	r3, r2
 800398c:	d007      	beq.n	800399e <HAL_GPIO_Init+0x206>
 800398e:	687b      	ldr	r3, [r7, #4]
 8003990:	4a49      	ldr	r2, [pc, #292]	@ (8003ab8 <HAL_GPIO_Init+0x320>)
 8003992:	4293      	cmp	r3, r2
 8003994:	d101      	bne.n	800399a <HAL_GPIO_Init+0x202>
 8003996:	2306      	movs	r3, #6
 8003998:	e00c      	b.n	80039b4 <HAL_GPIO_Init+0x21c>
 800399a:	2307      	movs	r3, #7
 800399c:	e00a      	b.n	80039b4 <HAL_GPIO_Init+0x21c>
 800399e:	2305      	movs	r3, #5
 80039a0:	e008      	b.n	80039b4 <HAL_GPIO_Init+0x21c>
 80039a2:	2304      	movs	r3, #4
 80039a4:	e006      	b.n	80039b4 <HAL_GPIO_Init+0x21c>
 80039a6:	2303      	movs	r3, #3
 80039a8:	e004      	b.n	80039b4 <HAL_GPIO_Init+0x21c>
 80039aa:	2302      	movs	r3, #2
 80039ac:	e002      	b.n	80039b4 <HAL_GPIO_Init+0x21c>
 80039ae:	2301      	movs	r3, #1
 80039b0:	e000      	b.n	80039b4 <HAL_GPIO_Init+0x21c>
 80039b2:	2300      	movs	r3, #0
 80039b4:	69fa      	ldr	r2, [r7, #28]
 80039b6:	f002 0203 	and.w	r2, r2, #3
 80039ba:	0092      	lsls	r2, r2, #2
 80039bc:	4093      	lsls	r3, r2
 80039be:	69ba      	ldr	r2, [r7, #24]
 80039c0:	4313      	orrs	r3, r2
 80039c2:	61bb      	str	r3, [r7, #24]
        SYSCFG->EXTICR[position >> 2U] = temp;
 80039c4:	4935      	ldr	r1, [pc, #212]	@ (8003a9c <HAL_GPIO_Init+0x304>)
 80039c6:	69fb      	ldr	r3, [r7, #28]
 80039c8:	089b      	lsrs	r3, r3, #2
 80039ca:	3302      	adds	r3, #2
 80039cc:	69ba      	ldr	r2, [r7, #24]
 80039ce:	f841 2023 	str.w	r2, [r1, r3, lsl #2]

        /* Clear Rising Falling edge configuration */
        temp = EXTI->RTSR;
 80039d2:	4b3a      	ldr	r3, [pc, #232]	@ (8003abc <HAL_GPIO_Init+0x324>)
 80039d4:	689b      	ldr	r3, [r3, #8]
 80039d6:	61bb      	str	r3, [r7, #24]
        temp &= ~((uint32_t)iocurrent);
 80039d8:	693b      	ldr	r3, [r7, #16]
 80039da:	43db      	mvns	r3, r3
 80039dc:	69ba      	ldr	r2, [r7, #24]
 80039de:	4013      	ands	r3, r2
 80039e0:	61bb      	str	r3, [r7, #24]
        if((GPIO_Init->Mode & TRIGGER_RISING) != 0x00U)
 80039e2:	683b      	ldr	r3, [r7, #0]
 80039e4:	685b      	ldr	r3, [r3, #4]
 80039e6:	f403 1380 	and.w	r3, r3, #1048576	@ 0x100000
 80039ea:	2b00      	cmp	r3, #0
 80039ec:	d003      	beq.n	80039f6 <HAL_GPIO_Init+0x25e>
        {
          temp |= iocurrent;
 80039ee:	69ba      	ldr	r2, [r7, #24]
 80039f0:	693b      	ldr	r3, [r7, #16]
 80039f2:	4313      	orrs	r3, r2
 80039f4:	61bb      	str	r3, [r7, #24]
        }
        EXTI->RTSR = temp;
 80039f6:	4a31      	ldr	r2, [pc, #196]	@ (8003abc <HAL_GPIO_Init+0x324>)
 80039f8:	69bb      	ldr	r3, [r7, #24]
 80039fa:	6093      	str	r3, [r2, #8]

        temp = EXTI->FTSR;
 80039fc:	4b2f      	ldr	r3, [pc, #188]	@ (8003abc <HAL_GPIO_Init+0x324>)
 80039fe:	68db      	ldr	r3, [r3, #12]
 8003a00:	61bb      	str	r3, [r7, #24]
        temp &= ~((uint32_t)iocurrent);
 8003a02:	693b      	ldr	r3, [r7, #16]
 8003a04:	43db      	mvns	r3, r3
 8003a06:	69ba      	ldr	r2, [r7, #24]
 8003a08:	4013      	ands	r3, r2
 8003a0a:	61bb      	str	r3, [r7, #24]
        if((GPIO_Init->Mode & TRIGGER_FALLING) != 0x00U)
 8003a0c:	683b      	ldr	r3, [r7, #0]
 8003a0e:	685b      	ldr	r3, [r3, #4]
 8003a10:	f403 1300 	and.w	r3, r3, #2097152	@ 0x200000
 8003a14:	2b00      	cmp	r3, #0
 8003a16:	d003      	beq.n	8003a20 <HAL_GPIO_Init+0x288>
        {
          temp |= iocurrent;
 8003a18:	69ba      	ldr	r2, [r7, #24]
 8003a1a:	693b      	ldr	r3, [r7, #16]
 8003a1c:	4313      	orrs	r3, r2
 8003a1e:	61bb      	str	r3, [r7, #24]
        }
        EXTI->FTSR = temp;
 8003a20:	4a26      	ldr	r2, [pc, #152]	@ (8003abc <HAL_GPIO_Init+0x324>)
 8003a22:	69bb      	ldr	r3, [r7, #24]
 8003a24:	60d3      	str	r3, [r2, #12]

        temp = EXTI->EMR;
 8003a26:	4b25      	ldr	r3, [pc, #148]	@ (8003abc <HAL_GPIO_Init+0x324>)
 8003a28:	685b      	ldr	r3, [r3, #4]
 8003a2a:	61bb      	str	r3, [r7, #24]
        temp &= ~((uint32_t)iocurrent);
 8003a2c:	693b      	ldr	r3, [r7, #16]
 8003a2e:	43db      	mvns	r3, r3
 8003a30:	69ba      	ldr	r2, [r7, #24]
 8003a32:	4013      	ands	r3, r2
 8003a34:	61bb      	str	r3, [r7, #24]
        if((GPIO_Init->Mode & EXTI_EVT) != 0x00U)
 8003a36:	683b      	ldr	r3, [r7, #0]
 8003a38:	685b      	ldr	r3, [r3, #4]
 8003a3a:	f403 3300 	and.w	r3, r3, #131072	@ 0x20000
 8003a3e:	2b00      	cmp	r3, #0
 8003a40:	d003      	beq.n	8003a4a <HAL_GPIO_Init+0x2b2>
        {
          temp |= iocurrent;
 8003a42:	69ba      	ldr	r2, [r7, #24]
 8003a44:	693b      	ldr	r3, [r7, #16]
 8003a46:	4313      	orrs	r3, r2
 8003a48:	61bb      	str	r3, [r7, #24]
        }
        EXTI->EMR = temp;
 8003a4a:	4a1c      	ldr	r2, [pc, #112]	@ (8003abc <HAL_GPIO_Init+0x324>)
 8003a4c:	69bb      	ldr	r3, [r7, #24]
 8003a4e:	6053      	str	r3, [r2, #4]

        /* Clear EXTI line configuration */
        temp = EXTI->IMR;
 8003a50:	4b1a      	ldr	r3, [pc, #104]	@ (8003abc <HAL_GPIO_Init+0x324>)
 8003a52:	681b      	ldr	r3, [r3, #0]
 8003a54:	61bb      	str	r3, [r7, #24]
        temp &= ~((uint32_t)iocurrent);
 8003a56:	693b      	ldr	r3, [r7, #16]
 8003a58:	43db      	mvns	r3, r3
 8003a5a:	69ba      	ldr	r2, [r7, #24]
 8003a5c:	4013      	ands	r3, r2
 8003a5e:	61bb      	str	r3, [r7, #24]
        if((GPIO_Init->Mode & EXTI_IT) != 0x00U)
 8003a60:	683b      	ldr	r3, [r7, #0]
 8003a62:	685b      	ldr	r3, [r3, #4]
 8003a64:	f403 3380 	and.w	r3, r3, #65536	@ 0x10000
 8003a68:	2b00      	cmp	r3, #0
 8003a6a:	d003      	beq.n	8003a74 <HAL_GPIO_Init+0x2dc>
        {
          temp |= iocurrent;
 8003a6c:	69ba      	ldr	r2, [r7, #24]
 8003a6e:	693b      	ldr	r3, [r7, #16]
 8003a70:	4313      	orrs	r3, r2
 8003a72:	61bb      	str	r3, [r7, #24]
        }
        EXTI->IMR = temp;
 8003a74:	4a11      	ldr	r2, [pc, #68]	@ (8003abc <HAL_GPIO_Init+0x324>)
 8003a76:	69bb      	ldr	r3, [r7, #24]
 8003a78:	6013      	str	r3, [r2, #0]
  for(position = 0U; position < GPIO_NUMBER; position++)
 8003a7a:	69fb      	ldr	r3, [r7, #28]
 8003a7c:	3301      	adds	r3, #1
 8003a7e:	61fb      	str	r3, [r7, #28]
 8003a80:	69fb      	ldr	r3, [r7, #28]
 8003a82:	2b0f      	cmp	r3, #15
 8003a84:	f67f ae96 	bls.w	80037b4 <HAL_GPIO_Init+0x1c>
      }
    }
  }
}
 8003a88:	bf00      	nop
 8003a8a:	bf00      	nop
 8003a8c:	3724      	adds	r7, #36	@ 0x24
 8003a8e:	46bd      	mov	sp, r7
 8003a90:	f85d 7b04 	ldr.w	r7, [sp], #4
 8003a94:	4770      	bx	lr
 8003a96:	bf00      	nop
 8003a98:	40023800 	.word	0x40023800
 8003a9c:	40013800 	.word	0x40013800
 8003aa0:	40020000 	.word	0x40020000
 8003aa4:	40020400 	.word	0x40020400
 8003aa8:	40020800 	.word	0x40020800
 8003aac:	40020c00 	.word	0x40020c00
 8003ab0:	40021000 	.word	0x40021000
 8003ab4:	40021400 	.word	0x40021400
 8003ab8:	40021800 	.word	0x40021800
 8003abc:	40013c00 	.word	0x40013c00

08003ac0 <HAL_GPIO_EXTI_IRQHandler>:
  * @brief  This function handles EXTI interrupt request.
  * @param  GPIO_Pin Specifies the pins connected EXTI line
  * @retval None
  */
void HAL_GPIO_EXTI_IRQHandler(uint16_t GPIO_Pin)
{
 8003ac0:	b580      	push	{r7, lr}
 8003ac2:	b082      	sub	sp, #8
 8003ac4:	af00      	add	r7, sp, #0
 8003ac6:	4603      	mov	r3, r0
 8003ac8:	80fb      	strh	r3, [r7, #6]
  /* EXTI line interrupt detected */
  if(__HAL_GPIO_EXTI_GET_IT(GPIO_Pin) != RESET)
 8003aca:	4b08      	ldr	r3, [pc, #32]	@ (8003aec <HAL_GPIO_EXTI_IRQHandler+0x2c>)
 8003acc:	695a      	ldr	r2, [r3, #20]
 8003ace:	88fb      	ldrh	r3, [r7, #6]
 8003ad0:	4013      	ands	r3, r2
 8003ad2:	2b00      	cmp	r3, #0
 8003ad4:	d006      	beq.n	8003ae4 <HAL_GPIO_EXTI_IRQHandler+0x24>
  {
    __HAL_GPIO_EXTI_CLEAR_IT(GPIO_Pin);
 8003ad6:	4a05      	ldr	r2, [pc, #20]	@ (8003aec <HAL_GPIO_EXTI_IRQHandler+0x2c>)
 8003ad8:	88fb      	ldrh	r3, [r7, #6]
 8003ada:	6153      	str	r3, [r2, #20]
    HAL_GPIO_EXTI_Callback(GPIO_Pin);
 8003adc:	88fb      	ldrh	r3, [r7, #6]
 8003ade:	4618      	mov	r0, r3
 8003ae0:	f7fe ff4c 	bl	800297c <HAL_GPIO_EXTI_Callback>
  }
}
 8003ae4:	bf00      	nop
 8003ae6:	3708      	adds	r7, #8
 8003ae8:	46bd      	mov	sp, r7
 8003aea:	bd80      	pop	{r7, pc}
 8003aec:	40013c00 	.word	0x40013c00

08003af0 <HAL_TIM_Base_Init>:
  *         Ex: call @ref HAL_TIM_Base_DeInit() before HAL_TIM_Base_Init()
  * @param  htim TIM Base handle
  * @retval HAL status
  */
HAL_StatusTypeDef HAL_TIM_Base_Init(TIM_HandleTypeDef *htim)
{
 8003af0:	b580      	push	{r7, lr}
 8003af2:	b082      	sub	sp, #8
 8003af4:	af00      	add	r7, sp, #0
 8003af6:	6078      	str	r0, [r7, #4]
  /* Check the TIM handle allocation */
  if (htim == NULL)
 8003af8:	687b      	ldr	r3, [r7, #4]
 8003afa:	2b00      	cmp	r3, #0
 8003afc:	d101      	bne.n	8003b02 <HAL_TIM_Base_Init+0x12>
  {
    return HAL_ERROR;
 8003afe:	2301      	movs	r3, #1
 8003b00:	e041      	b.n	8003b86 <HAL_TIM_Base_Init+0x96>
  assert_param(IS_TIM_COUNTER_MODE(htim->Init.CounterMode));
  assert_param(IS_TIM_CLOCKDIVISION_DIV(htim->Init.ClockDivision));
  assert_param(IS_TIM_PERIOD(htim, htim->Init.Period));
  assert_param(IS_TIM_AUTORELOAD_PRELOAD(htim->Init.AutoReloadPreload));

  if (htim->State == HAL_TIM_STATE_RESET)
 8003b02:	687b      	ldr	r3, [r7, #4]
 8003b04:	f893 303d 	ldrb.w	r3, [r3, #61]	@ 0x3d
 8003b08:	b2db      	uxtb	r3, r3
 8003b0a:	2b00      	cmp	r3, #0
 8003b0c:	d106      	bne.n	8003b1c <HAL_TIM_Base_Init+0x2c>
  {
    /* Allocate lock resource and initialize it */
    htim->Lock = HAL_UNLOCKED;
 8003b0e:	687b      	ldr	r3, [r7, #4]
 8003b10:	2200      	movs	r2, #0
 8003b12:	f883 203c 	strb.w	r2, [r3, #60]	@ 0x3c
    }
    /* Init the low level hardware : GPIO, CLOCK, NVIC */
    htim->Base_MspInitCallback(htim);
#else
    /* Init the low level hardware : GPIO, CLOCK, NVIC */
    HAL_TIM_Base_MspInit(htim);
 8003b16:	6878      	ldr	r0, [r7, #4]
 8003b18:	f7fe ff9e 	bl	8002a58 <HAL_TIM_Base_MspInit>
#endif /* USE_HAL_TIM_REGISTER_CALLBACKS */
  }

  /* Set the TIM state */
  htim->State = HAL_TIM_STATE_BUSY;
 8003b1c:	687b      	ldr	r3, [r7, #4]
 8003b1e:	2202      	movs	r2, #2
 8003b20:	f883 203d 	strb.w	r2, [r3, #61]	@ 0x3d

  /* Set the Time Base configuration */
  TIM_Base_SetConfig(htim->Instance, &htim->Init);
 8003b24:	687b      	ldr	r3, [r7, #4]
 8003b26:	681a      	ldr	r2, [r3, #0]
 8003b28:	687b      	ldr	r3, [r7, #4]
 8003b2a:	3304      	adds	r3, #4
 8003b2c:	4619      	mov	r1, r3
 8003b2e:	4610      	mov	r0, r2
 8003b30:	f000 f89e 	bl	8003c70 <TIM_Base_SetConfig>

  /* Initialize the DMA burst operation state */
  htim->DMABurstState = HAL_DMA_BURST_STATE_READY;
 8003b34:	687b      	ldr	r3, [r7, #4]
 8003b36:	2201      	movs	r2, #1
 8003b38:	f883 2046 	strb.w	r2, [r3, #70]	@ 0x46

  /* Initialize the TIM channels state */
  TIM_CHANNEL_STATE_SET_ALL(htim, HAL_TIM_CHANNEL_STATE_READY);
 8003b3c:	687b      	ldr	r3, [r7, #4]
 8003b3e:	2201      	movs	r2, #1
 8003b40:	f883 203e 	strb.w	r2, [r3, #62]	@ 0x3e
 8003b44:	687b      	ldr	r3, [r7, #4]
 8003b46:	2201      	movs	r2, #1
 8003b48:	f883 203f 	strb.w	r2, [r3, #63]	@ 0x3f
 8003b4c:	687b      	ldr	r3, [r7, #4]
 8003b4e:	2201      	movs	r2, #1
 8003b50:	f883 2040 	strb.w	r2, [r3, #64]	@ 0x40
 8003b54:	687b      	ldr	r3, [r7, #4]
 8003b56:	2201      	movs	r2, #1
 8003b58:	f883 2041 	strb.w	r2, [r3, #65]	@ 0x41
  TIM_CHANNEL_N_STATE_SET_ALL(htim, HAL_TIM_CHANNEL_STATE_READY);
 8003b5c:	687b      	ldr	r3, [r7, #4]
 8003b5e:	2201      	movs	r2, #1
 8003b60:	f883 2042 	strb.w	r2, [r3, #66]	@ 0x42
 8003b64:	687b      	ldr	r3, [r7, #4]
 8003b66:	2201      	movs	r2, #1
 8003b68:	f883 2043 	strb.w	r2, [r3, #67]	@ 0x43
 8003b6c:	687b      	ldr	r3, [r7, #4]
 8003b6e:	2201      	movs	r2, #1
 8003b70:	f883 2044 	strb.w	r2, [r3, #68]	@ 0x44
 8003b74:	687b      	ldr	r3, [r7, #4]
 8003b76:	2201      	movs	r2, #1
 8003b78:	f883 2045 	strb.w	r2, [r3, #69]	@ 0x45

  /* Initialize the TIM state*/
  htim->State = HAL_TIM_STATE_READY;
 8003b7c:	687b      	ldr	r3, [r7, #4]
 8003b7e:	2201      	movs	r2, #1
 8003b80:	f883 203d 	strb.w	r2, [r3, #61]	@ 0x3d

  return HAL_OK;
 8003b84:	2300      	movs	r3, #0
}
 8003b86:	4618      	mov	r0, r3
 8003b88:	3708      	adds	r7, #8
 8003b8a:	46bd      	mov	sp, r7
 8003b8c:	bd80      	pop	{r7, pc}
	...

08003b90 <HAL_TIM_Base_Start_IT>:
  * @brief  Starts the TIM Base generation in interrupt mode.
  * @param  htim TIM Base handle
  * @retval HAL status
  */
HAL_StatusTypeDef HAL_TIM_Base_Start_IT(TIM_HandleTypeDef *htim)
{
 8003b90:	b480      	push	{r7}
 8003b92:	b085      	sub	sp, #20
 8003b94:	af00      	add	r7, sp, #0
 8003b96:	6078      	str	r0, [r7, #4]

  /* Check the parameters */
  assert_param(IS_TIM_INSTANCE(htim->Instance));

  /* Check the TIM state */
  if (htim->State != HAL_TIM_STATE_READY)
 8003b98:	687b      	ldr	r3, [r7, #4]
 8003b9a:	f893 303d 	ldrb.w	r3, [r3, #61]	@ 0x3d
 8003b9e:	b2db      	uxtb	r3, r3
 8003ba0:	2b01      	cmp	r3, #1
 8003ba2:	d001      	beq.n	8003ba8 <HAL_TIM_Base_Start_IT+0x18>
  {
    return HAL_ERROR;
 8003ba4:	2301      	movs	r3, #1
 8003ba6:	e04e      	b.n	8003c46 <HAL_TIM_Base_Start_IT+0xb6>
  }

  /* Set the TIM state */
  htim->State = HAL_TIM_STATE_BUSY;
 8003ba8:	687b      	ldr	r3, [r7, #4]
 8003baa:	2202      	movs	r2, #2
 8003bac:	f883 203d 	strb.w	r2, [r3, #61]	@ 0x3d

  /* Enable the TIM Update interrupt */
  __HAL_TIM_ENABLE_IT(htim, TIM_IT_UPDATE);
 8003bb0:	687b      	ldr	r3, [r7, #4]
 8003bb2:	681b      	ldr	r3, [r3, #0]
 8003bb4:	68da      	ldr	r2, [r3, #12]
 8003bb6:	687b      	ldr	r3, [r7, #4]
 8003bb8:	681b      	ldr	r3, [r3, #0]
 8003bba:	f042 0201 	orr.w	r2, r2, #1
 8003bbe:	60da      	str	r2, [r3, #12]

  /* Enable the Peripheral, except in trigger mode where enable is automatically done with trigger */
  if (IS_TIM_SLAVE_INSTANCE(htim->Instance))
 8003bc0:	687b      	ldr	r3, [r7, #4]
 8003bc2:	681b      	ldr	r3, [r3, #0]
 8003bc4:	4a23      	ldr	r2, [pc, #140]	@ (8003c54 <HAL_TIM_Base_Start_IT+0xc4>)
 8003bc6:	4293      	cmp	r3, r2
 8003bc8:	d022      	beq.n	8003c10 <HAL_TIM_Base_Start_IT+0x80>
 8003bca:	687b      	ldr	r3, [r7, #4]
 8003bcc:	681b      	ldr	r3, [r3, #0]
 8003bce:	f1b3 4f80 	cmp.w	r3, #1073741824	@ 0x40000000
 8003bd2:	d01d      	beq.n	8003c10 <HAL_TIM_Base_Start_IT+0x80>
 8003bd4:	687b      	ldr	r3, [r7, #4]
 8003bd6:	681b      	ldr	r3, [r3, #0]
 8003bd8:	4a1f      	ldr	r2, [pc, #124]	@ (8003c58 <HAL_TIM_Base_Start_IT+0xc8>)
 8003bda:	4293      	cmp	r3, r2
 8003bdc:	d018      	beq.n	8003c10 <HAL_TIM_Base_Start_IT+0x80>
 8003bde:	687b      	ldr	r3, [r7, #4]
 8003be0:	681b      	ldr	r3, [r3, #0]
 8003be2:	4a1e      	ldr	r2, [pc, #120]	@ (8003c5c <HAL_TIM_Base_Start_IT+0xcc>)
 8003be4:	4293      	cmp	r3, r2
 8003be6:	d013      	beq.n	8003c10 <HAL_TIM_Base_Start_IT+0x80>
 8003be8:	687b      	ldr	r3, [r7, #4]
 8003bea:	681b      	ldr	r3, [r3, #0]
 8003bec:	4a1c      	ldr	r2, [pc, #112]	@ (8003c60 <HAL_TIM_Base_Start_IT+0xd0>)
 8003bee:	4293      	cmp	r3, r2
 8003bf0:	d00e      	beq.n	8003c10 <HAL_TIM_Base_Start_IT+0x80>
 8003bf2:	687b      	ldr	r3, [r7, #4]
 8003bf4:	681b      	ldr	r3, [r3, #0]
 8003bf6:	4a1b      	ldr	r2, [pc, #108]	@ (8003c64 <HAL_TIM_Base_Start_IT+0xd4>)
 8003bf8:	4293      	cmp	r3, r2
 8003bfa:	d009      	beq.n	8003c10 <HAL_TIM_Base_Start_IT+0x80>
 8003bfc:	687b      	ldr	r3, [r7, #4]
 8003bfe:	681b      	ldr	r3, [r3, #0]
 8003c00:	4a19      	ldr	r2, [pc, #100]	@ (8003c68 <HAL_TIM_Base_Start_IT+0xd8>)
 8003c02:	4293      	cmp	r3, r2
 8003c04:	d004      	beq.n	8003c10 <HAL_TIM_Base_Start_IT+0x80>
 8003c06:	687b      	ldr	r3, [r7, #4]
 8003c08:	681b      	ldr	r3, [r3, #0]
 8003c0a:	4a18      	ldr	r2, [pc, #96]	@ (8003c6c <HAL_TIM_Base_Start_IT+0xdc>)
 8003c0c:	4293      	cmp	r3, r2
 8003c0e:	d111      	bne.n	8003c34 <HAL_TIM_Base_Start_IT+0xa4>
  {
    tmpsmcr = htim->Instance->SMCR & TIM_SMCR_SMS;
 8003c10:	687b      	ldr	r3, [r7, #4]
 8003c12:	681b      	ldr	r3, [r3, #0]
 8003c14:	689b      	ldr	r3, [r3, #8]
 8003c16:	f003 0307 	and.w	r3, r3, #7
 8003c1a:	60fb      	str	r3, [r7, #12]
    if (!IS_TIM_SLAVEMODE_TRIGGER_ENABLED(tmpsmcr))
 8003c1c:	68fb      	ldr	r3, [r7, #12]
 8003c1e:	2b06      	cmp	r3, #6
 8003c20:	d010      	beq.n	8003c44 <HAL_TIM_Base_Start_IT+0xb4>
    {
      __HAL_TIM_ENABLE(htim);
 8003c22:	687b      	ldr	r3, [r7, #4]
 8003c24:	681b      	ldr	r3, [r3, #0]
 8003c26:	681a      	ldr	r2, [r3, #0]
 8003c28:	687b      	ldr	r3, [r7, #4]
 8003c2a:	681b      	ldr	r3, [r3, #0]
 8003c2c:	f042 0201 	orr.w	r2, r2, #1
 8003c30:	601a      	str	r2, [r3, #0]
    if (!IS_TIM_SLAVEMODE_TRIGGER_ENABLED(tmpsmcr))
 8003c32:	e007      	b.n	8003c44 <HAL_TIM_Base_Start_IT+0xb4>
    }
  }
  else
  {
    __HAL_TIM_ENABLE(htim);
 8003c34:	687b      	ldr	r3, [r7, #4]
 8003c36:	681b      	ldr	r3, [r3, #0]
 8003c38:	681a      	ldr	r2, [r3, #0]
 8003c3a:	687b      	ldr	r3, [r7, #4]
 8003c3c:	681b      	ldr	r3, [r3, #0]
 8003c3e:	f042 0201 	orr.w	r2, r2, #1
 8003c42:	601a      	str	r2, [r3, #0]
  }

  /* Return function status */
  return HAL_OK;
 8003c44:	2300      	movs	r3, #0
}
 8003c46:	4618      	mov	r0, r3
 8003c48:	3714      	adds	r7, #20
 8003c4a:	46bd      	mov	sp, r7
 8003c4c:	f85d 7b04 	ldr.w	r7, [sp], #4
 8003c50:	4770      	bx	lr
 8003c52:	bf00      	nop
 8003c54:	40010000 	.word	0x40010000
 8003c58:	40000400 	.word	0x40000400
 8003c5c:	40000800 	.word	0x40000800
 8003c60:	40000c00 	.word	0x40000c00
 8003c64:	40010400 	.word	0x40010400
 8003c68:	40014000 	.word	0x40014000
 8003c6c:	40001800 	.word	0x40001800

08003c70 <TIM_Base_SetConfig>:
  * @param  TIMx TIM peripheral
  * @param  Structure TIM Base configuration structure
  * @retval None
  */
void TIM_Base_SetConfig(TIM_TypeDef *TIMx, const TIM_Base_InitTypeDef *Structure)
{
 8003c70:	b480      	push	{r7}
 8003c72:	b085      	sub	sp, #20
 8003c74:	af00      	add	r7, sp, #0
 8003c76:	6078      	str	r0, [r7, #4]
 8003c78:	6039      	str	r1, [r7, #0]
  uint32_t tmpcr1;
  tmpcr1 = TIMx->CR1;
 8003c7a:	687b      	ldr	r3, [r7, #4]
 8003c7c:	681b      	ldr	r3, [r3, #0]
 8003c7e:	60fb      	str	r3, [r7, #12]

  /* Set TIM Time Base Unit parameters ---------------------------------------*/
  if (IS_TIM_COUNTER_MODE_SELECT_INSTANCE(TIMx))
 8003c80:	687b      	ldr	r3, [r7, #4]
 8003c82:	4a46      	ldr	r2, [pc, #280]	@ (8003d9c <TIM_Base_SetConfig+0x12c>)
 8003c84:	4293      	cmp	r3, r2
 8003c86:	d013      	beq.n	8003cb0 <TIM_Base_SetConfig+0x40>
 8003c88:	687b      	ldr	r3, [r7, #4]
 8003c8a:	f1b3 4f80 	cmp.w	r3, #1073741824	@ 0x40000000
 8003c8e:	d00f      	beq.n	8003cb0 <TIM_Base_SetConfig+0x40>
 8003c90:	687b      	ldr	r3, [r7, #4]
 8003c92:	4a43      	ldr	r2, [pc, #268]	@ (8003da0 <TIM_Base_SetConfig+0x130>)
 8003c94:	4293      	cmp	r3, r2
 8003c96:	d00b      	beq.n	8003cb0 <TIM_Base_SetConfig+0x40>
 8003c98:	687b      	ldr	r3, [r7, #4]
 8003c9a:	4a42      	ldr	r2, [pc, #264]	@ (8003da4 <TIM_Base_SetConfig+0x134>)
 8003c9c:	4293      	cmp	r3, r2
 8003c9e:	d007      	beq.n	8003cb0 <TIM_Base_SetConfig+0x40>
 8003ca0:	687b      	ldr	r3, [r7, #4]
 8003ca2:	4a41      	ldr	r2, [pc, #260]	@ (8003da8 <TIM_Base_SetConfig+0x138>)
 8003ca4:	4293      	cmp	r3, r2
 8003ca6:	d003      	beq.n	8003cb0 <TIM_Base_SetConfig+0x40>
 8003ca8:	687b      	ldr	r3, [r7, #4]
 8003caa:	4a40      	ldr	r2, [pc, #256]	@ (8003dac <TIM_Base_SetConfig+0x13c>)
 8003cac:	4293      	cmp	r3, r2
 8003cae:	d108      	bne.n	8003cc2 <TIM_Base_SetConfig+0x52>
  {
    /* Select the Counter Mode */
    tmpcr1 &= ~(TIM_CR1_DIR | TIM_CR1_CMS);
 8003cb0:	68fb      	ldr	r3, [r7, #12]
 8003cb2:	f023 0370 	bic.w	r3, r3, #112	@ 0x70
 8003cb6:	60fb      	str	r3, [r7, #12]
    tmpcr1 |= Structure->CounterMode;
 8003cb8:	683b      	ldr	r3, [r7, #0]
 8003cba:	685b      	ldr	r3, [r3, #4]
 8003cbc:	68fa      	ldr	r2, [r7, #12]
 8003cbe:	4313      	orrs	r3, r2
 8003cc0:	60fb      	str	r3, [r7, #12]
  }

  if (IS_TIM_CLOCK_DIVISION_INSTANCE(TIMx))
 8003cc2:	687b      	ldr	r3, [r7, #4]
 8003cc4:	4a35      	ldr	r2, [pc, #212]	@ (8003d9c <TIM_Base_SetConfig+0x12c>)
 8003cc6:	4293      	cmp	r3, r2
 8003cc8:	d02b      	beq.n	8003d22 <TIM_Base_SetConfig+0xb2>
 8003cca:	687b      	ldr	r3, [r7, #4]
 8003ccc:	f1b3 4f80 	cmp.w	r3, #1073741824	@ 0x40000000
 8003cd0:	d027      	beq.n	8003d22 <TIM_Base_SetConfig+0xb2>
 8003cd2:	687b      	ldr	r3, [r7, #4]
 8003cd4:	4a32      	ldr	r2, [pc, #200]	@ (8003da0 <TIM_Base_SetConfig+0x130>)
 8003cd6:	4293      	cmp	r3, r2
 8003cd8:	d023      	beq.n	8003d22 <TIM_Base_SetConfig+0xb2>
 8003cda:	687b      	ldr	r3, [r7, #4]
 8003cdc:	4a31      	ldr	r2, [pc, #196]	@ (8003da4 <TIM_Base_SetConfig+0x134>)
 8003cde:	4293      	cmp	r3, r2
 8003ce0:	d01f      	beq.n	8003d22 <TIM_Base_SetConfig+0xb2>
 8003ce2:	687b      	ldr	r3, [r7, #4]
 8003ce4:	4a30      	ldr	r2, [pc, #192]	@ (8003da8 <TIM_Base_SetConfig+0x138>)
 8003ce6:	4293      	cmp	r3, r2
 8003ce8:	d01b      	beq.n	8003d22 <TIM_Base_SetConfig+0xb2>
 8003cea:	687b      	ldr	r3, [r7, #4]
 8003cec:	4a2f      	ldr	r2, [pc, #188]	@ (8003dac <TIM_Base_SetConfig+0x13c>)
 8003cee:	4293      	cmp	r3, r2
 8003cf0:	d017      	beq.n	8003d22 <TIM_Base_SetConfig+0xb2>
 8003cf2:	687b      	ldr	r3, [r7, #4]
 8003cf4:	4a2e      	ldr	r2, [pc, #184]	@ (8003db0 <TIM_Base_SetConfig+0x140>)
 8003cf6:	4293      	cmp	r3, r2
 8003cf8:	d013      	beq.n	8003d22 <TIM_Base_SetConfig+0xb2>
 8003cfa:	687b      	ldr	r3, [r7, #4]
 8003cfc:	4a2d      	ldr	r2, [pc, #180]	@ (8003db4 <TIM_Base_SetConfig+0x144>)
 8003cfe:	4293      	cmp	r3, r2
 8003d00:	d00f      	beq.n	8003d22 <TIM_Base_SetConfig+0xb2>
 8003d02:	687b      	ldr	r3, [r7, #4]
 8003d04:	4a2c      	ldr	r2, [pc, #176]	@ (8003db8 <TIM_Base_SetConfig+0x148>)
 8003d06:	4293      	cmp	r3, r2
 8003d08:	d00b      	beq.n	8003d22 <TIM_Base_SetConfig+0xb2>
 8003d0a:	687b      	ldr	r3, [r7, #4]
 8003d0c:	4a2b      	ldr	r2, [pc, #172]	@ (8003dbc <TIM_Base_SetConfig+0x14c>)
 8003d0e:	4293      	cmp	r3, r2
 8003d10:	d007      	beq.n	8003d22 <TIM_Base_SetConfig+0xb2>
 8003d12:	687b      	ldr	r3, [r7, #4]
 8003d14:	4a2a      	ldr	r2, [pc, #168]	@ (8003dc0 <TIM_Base_SetConfig+0x150>)
 8003d16:	4293      	cmp	r3, r2
 8003d18:	d003      	beq.n	8003d22 <TIM_Base_SetConfig+0xb2>
 8003d1a:	687b      	ldr	r3, [r7, #4]
 8003d1c:	4a29      	ldr	r2, [pc, #164]	@ (8003dc4 <TIM_Base_SetConfig+0x154>)
 8003d1e:	4293      	cmp	r3, r2
 8003d20:	d108      	bne.n	8003d34 <TIM_Base_SetConfig+0xc4>
  {
    /* Set the clock division */
    tmpcr1 &= ~TIM_CR1_CKD;
 8003d22:	68fb      	ldr	r3, [r7, #12]
 8003d24:	f423 7340 	bic.w	r3, r3, #768	@ 0x300
 8003d28:	60fb      	str	r3, [r7, #12]
    tmpcr1 |= (uint32_t)Structure->ClockDivision;
 8003d2a:	683b      	ldr	r3, [r7, #0]
 8003d2c:	68db      	ldr	r3, [r3, #12]
 8003d2e:	68fa      	ldr	r2, [r7, #12]
 8003d30:	4313      	orrs	r3, r2
 8003d32:	60fb      	str	r3, [r7, #12]
  }

  /* Set the auto-reload preload */
  MODIFY_REG(tmpcr1, TIM_CR1_ARPE, Structure->AutoReloadPreload);
 8003d34:	68fb      	ldr	r3, [r7, #12]
 8003d36:	f023 0280 	bic.w	r2, r3, #128	@ 0x80
 8003d3a:	683b      	ldr	r3, [r7, #0]
 8003d3c:	695b      	ldr	r3, [r3, #20]
 8003d3e:	4313      	orrs	r3, r2
 8003d40:	60fb      	str	r3, [r7, #12]

  TIMx->CR1 = tmpcr1;
 8003d42:	687b      	ldr	r3, [r7, #4]
 8003d44:	68fa      	ldr	r2, [r7, #12]
 8003d46:	601a      	str	r2, [r3, #0]

  /* Set the Autoreload value */
  TIMx->ARR = (uint32_t)Structure->Period ;
 8003d48:	683b      	ldr	r3, [r7, #0]
 8003d4a:	689a      	ldr	r2, [r3, #8]
 8003d4c:	687b      	ldr	r3, [r7, #4]
 8003d4e:	62da      	str	r2, [r3, #44]	@ 0x2c

  /* Set the Prescaler value */
  TIMx->PSC = Structure->Prescaler;
 8003d50:	683b      	ldr	r3, [r7, #0]
 8003d52:	681a      	ldr	r2, [r3, #0]
 8003d54:	687b      	ldr	r3, [r7, #4]
 8003d56:	629a      	str	r2, [r3, #40]	@ 0x28

  if (IS_TIM_REPETITION_COUNTER_INSTANCE(TIMx))
 8003d58:	687b      	ldr	r3, [r7, #4]
 8003d5a:	4a10      	ldr	r2, [pc, #64]	@ (8003d9c <TIM_Base_SetConfig+0x12c>)
 8003d5c:	4293      	cmp	r3, r2
 8003d5e:	d003      	beq.n	8003d68 <TIM_Base_SetConfig+0xf8>
 8003d60:	687b      	ldr	r3, [r7, #4]
 8003d62:	4a12      	ldr	r2, [pc, #72]	@ (8003dac <TIM_Base_SetConfig+0x13c>)
 8003d64:	4293      	cmp	r3, r2
 8003d66:	d103      	bne.n	8003d70 <TIM_Base_SetConfig+0x100>
  {
    /* Set the Repetition Counter value */
    TIMx->RCR = Structure->RepetitionCounter;
 8003d68:	683b      	ldr	r3, [r7, #0]
 8003d6a:	691a      	ldr	r2, [r3, #16]
 8003d6c:	687b      	ldr	r3, [r7, #4]
 8003d6e:	631a      	str	r2, [r3, #48]	@ 0x30
  }

  /* Generate an update event to reload the Prescaler
     and the repetition counter (only for advanced timer) value immediately */
  TIMx->EGR = TIM_EGR_UG;
 8003d70:	687b      	ldr	r3, [r7, #4]
 8003d72:	2201      	movs	r2, #1
 8003d74:	615a      	str	r2, [r3, #20]

  /* Check if the update flag is set after the Update Generation, if so clear the UIF flag */
  if (HAL_IS_BIT_SET(TIMx->SR, TIM_FLAG_UPDATE))
 8003d76:	687b      	ldr	r3, [r7, #4]
 8003d78:	691b      	ldr	r3, [r3, #16]
 8003d7a:	f003 0301 	and.w	r3, r3, #1
 8003d7e:	2b01      	cmp	r3, #1
 8003d80:	d105      	bne.n	8003d8e <TIM_Base_SetConfig+0x11e>
  {
    /* Clear the update flag */
    CLEAR_BIT(TIMx->SR, TIM_FLAG_UPDATE);
 8003d82:	687b      	ldr	r3, [r7, #4]
 8003d84:	691b      	ldr	r3, [r3, #16]
 8003d86:	f023 0201 	bic.w	r2, r3, #1
 8003d8a:	687b      	ldr	r3, [r7, #4]
 8003d8c:	611a      	str	r2, [r3, #16]
  }
}
 8003d8e:	bf00      	nop
 8003d90:	3714      	adds	r7, #20
 8003d92:	46bd      	mov	sp, r7
 8003d94:	f85d 7b04 	ldr.w	r7, [sp], #4
 8003d98:	4770      	bx	lr
 8003d9a:	bf00      	nop
 8003d9c:	40010000 	.word	0x40010000
 8003da0:	40000400 	.word	0x40000400
 8003da4:	40000800 	.word	0x40000800
 8003da8:	40000c00 	.word	0x40000c00
 8003dac:	40010400 	.word	0x40010400
 8003db0:	40014000 	.word	0x40014000
 8003db4:	40014400 	.word	0x40014400
 8003db8:	40014800 	.word	0x40014800
 8003dbc:	40001800 	.word	0x40001800
 8003dc0:	40001c00 	.word	0x40001c00
 8003dc4:	40002000 	.word	0x40002000

08003dc8 <HAL_TIMEx_MasterConfigSynchronization>:
  *         mode.
  * @retval HAL status
  */
HAL_StatusTypeDef HAL_TIMEx_MasterConfigSynchronization(TIM_HandleTypeDef *htim,
                                                        const TIM_MasterConfigTypeDef *sMasterConfig)
{
 8003dc8:	b480      	push	{r7}
 8003dca:	b085      	sub	sp, #20
 8003dcc:	af00      	add	r7, sp, #0
 8003dce:	6078      	str	r0, [r7, #4]
 8003dd0:	6039      	str	r1, [r7, #0]
  assert_param(IS_TIM_MASTER_INSTANCE(htim->Instance));
  assert_param(IS_TIM_TRGO_SOURCE(sMasterConfig->MasterOutputTrigger));
  assert_param(IS_TIM_MSM_STATE(sMasterConfig->MasterSlaveMode));

  /* Check input state */
  __HAL_LOCK(htim);
 8003dd2:	687b      	ldr	r3, [r7, #4]
 8003dd4:	f893 303c 	ldrb.w	r3, [r3, #60]	@ 0x3c
 8003dd8:	2b01      	cmp	r3, #1
 8003dda:	d101      	bne.n	8003de0 <HAL_TIMEx_MasterConfigSynchronization+0x18>
 8003ddc:	2302      	movs	r3, #2
 8003dde:	e05a      	b.n	8003e96 <HAL_TIMEx_MasterConfigSynchronization+0xce>
 8003de0:	687b      	ldr	r3, [r7, #4]
 8003de2:	2201      	movs	r2, #1
 8003de4:	f883 203c 	strb.w	r2, [r3, #60]	@ 0x3c

  /* Change the handler state */
  htim->State = HAL_TIM_STATE_BUSY;
 8003de8:	687b      	ldr	r3, [r7, #4]
 8003dea:	2202      	movs	r2, #2
 8003dec:	f883 203d 	strb.w	r2, [r3, #61]	@ 0x3d

  /* Get the TIMx CR2 register value */
  tmpcr2 = htim->Instance->CR2;
 8003df0:	687b      	ldr	r3, [r7, #4]
 8003df2:	681b      	ldr	r3, [r3, #0]
 8003df4:	685b      	ldr	r3, [r3, #4]
 8003df6:	60fb      	str	r3, [r7, #12]

  /* Get the TIMx SMCR register value */
  tmpsmcr = htim->Instance->SMCR;
 8003df8:	687b      	ldr	r3, [r7, #4]
 8003dfa:	681b      	ldr	r3, [r3, #0]
 8003dfc:	689b      	ldr	r3, [r3, #8]
 8003dfe:	60bb      	str	r3, [r7, #8]

  /* Reset the MMS Bits */
  tmpcr2 &= ~TIM_CR2_MMS;
 8003e00:	68fb      	ldr	r3, [r7, #12]
 8003e02:	f023 0370 	bic.w	r3, r3, #112	@ 0x70
 8003e06:	60fb      	str	r3, [r7, #12]
  /* Select the TRGO source */
  tmpcr2 |=  sMasterConfig->MasterOutputTrigger;
 8003e08:	683b      	ldr	r3, [r7, #0]
 8003e0a:	681b      	ldr	r3, [r3, #0]
 8003e0c:	68fa      	ldr	r2, [r7, #12]
 8003e0e:	4313      	orrs	r3, r2
 8003e10:	60fb      	str	r3, [r7, #12]

  /* Update TIMx CR2 */
  htim->Instance->CR2 = tmpcr2;
 8003e12:	687b      	ldr	r3, [r7, #4]
 8003e14:	681b      	ldr	r3, [r3, #0]
 8003e16:	68fa      	ldr	r2, [r7, #12]
 8003e18:	605a      	str	r2, [r3, #4]

  if (IS_TIM_SLAVE_INSTANCE(htim->Instance))
 8003e1a:	687b      	ldr	r3, [r7, #4]
 8003e1c:	681b      	ldr	r3, [r3, #0]
 8003e1e:	4a21      	ldr	r2, [pc, #132]	@ (8003ea4 <HAL_TIMEx_MasterConfigSynchronization+0xdc>)
 8003e20:	4293      	cmp	r3, r2
 8003e22:	d022      	beq.n	8003e6a <HAL_TIMEx_MasterConfigSynchronization+0xa2>
 8003e24:	687b      	ldr	r3, [r7, #4]
 8003e26:	681b      	ldr	r3, [r3, #0]
 8003e28:	f1b3 4f80 	cmp.w	r3, #1073741824	@ 0x40000000
 8003e2c:	d01d      	beq.n	8003e6a <HAL_TIMEx_MasterConfigSynchronization+0xa2>
 8003e2e:	687b      	ldr	r3, [r7, #4]
 8003e30:	681b      	ldr	r3, [r3, #0]
 8003e32:	4a1d      	ldr	r2, [pc, #116]	@ (8003ea8 <HAL_TIMEx_MasterConfigSynchronization+0xe0>)
 8003e34:	4293      	cmp	r3, r2
 8003e36:	d018      	beq.n	8003e6a <HAL_TIMEx_MasterConfigSynchronization+0xa2>
 8003e38:	687b      	ldr	r3, [r7, #4]
 8003e3a:	681b      	ldr	r3, [r3, #0]
 8003e3c:	4a1b      	ldr	r2, [pc, #108]	@ (8003eac <HAL_TIMEx_MasterConfigSynchronization+0xe4>)
 8003e3e:	4293      	cmp	r3, r2
 8003e40:	d013      	beq.n	8003e6a <HAL_TIMEx_MasterConfigSynchronization+0xa2>
 8003e42:	687b      	ldr	r3, [r7, #4]
 8003e44:	681b      	ldr	r3, [r3, #0]
 8003e46:	4a1a      	ldr	r2, [pc, #104]	@ (8003eb0 <HAL_TIMEx_MasterConfigSynchronization+0xe8>)
 8003e48:	4293      	cmp	r3, r2
 8003e4a:	d00e      	beq.n	8003e6a <HAL_TIMEx_MasterConfigSynchronization+0xa2>
 8003e4c:	687b      	ldr	r3, [r7, #4]
 8003e4e:	681b      	ldr	r3, [r3, #0]
 8003e50:	4a18      	ldr	r2, [pc, #96]	@ (8003eb4 <HAL_TIMEx_MasterConfigSynchronization+0xec>)
 8003e52:	4293      	cmp	r3, r2
 8003e54:	d009      	beq.n	8003e6a <HAL_TIMEx_MasterConfigSynchronization+0xa2>
 8003e56:	687b      	ldr	r3, [r7, #4]
 8003e58:	681b      	ldr	r3, [r3, #0]
 8003e5a:	4a17      	ldr	r2, [pc, #92]	@ (8003eb8 <HAL_TIMEx_MasterConfigSynchronization+0xf0>)
 8003e5c:	4293      	cmp	r3, r2
 8003e5e:	d004      	beq.n	8003e6a <HAL_TIMEx_MasterConfigSynchronization+0xa2>
 8003e60:	687b      	ldr	r3, [r7, #4]
 8003e62:	681b      	ldr	r3, [r3, #0]
 8003e64:	4a15      	ldr	r2, [pc, #84]	@ (8003ebc <HAL_TIMEx_MasterConfigSynchronization+0xf4>)
 8003e66:	4293      	cmp	r3, r2
 8003e68:	d10c      	bne.n	8003e84 <HAL_TIMEx_MasterConfigSynchronization+0xbc>
  {
    /* Reset the MSM Bit */
    tmpsmcr &= ~TIM_SMCR_MSM;
 8003e6a:	68bb      	ldr	r3, [r7, #8]
 8003e6c:	f023 0380 	bic.w	r3, r3, #128	@ 0x80
 8003e70:	60bb      	str	r3, [r7, #8]
    /* Set master mode */
    tmpsmcr |= sMasterConfig->MasterSlaveMode;
 8003e72:	683b      	ldr	r3, [r7, #0]
 8003e74:	685b      	ldr	r3, [r3, #4]
 8003e76:	68ba      	ldr	r2, [r7, #8]
 8003e78:	4313      	orrs	r3, r2
 8003e7a:	60bb      	str	r3, [r7, #8]

    /* Update TIMx SMCR */
    htim->Instance->SMCR = tmpsmcr;
 8003e7c:	687b      	ldr	r3, [r7, #4]
 8003e7e:	681b      	ldr	r3, [r3, #0]
 8003e80:	68ba      	ldr	r2, [r7, #8]
 8003e82:	609a      	str	r2, [r3, #8]
  }

  /* Change the htim state */
  htim->State = HAL_TIM_STATE_READY;
 8003e84:	687b      	ldr	r3, [r7, #4]
 8003e86:	2201      	movs	r2, #1
 8003e88:	f883 203d 	strb.w	r2, [r3, #61]	@ 0x3d

  __HAL_UNLOCK(htim);
 8003e8c:	687b      	ldr	r3, [r7, #4]
 8003e8e:	2200      	movs	r2, #0
 8003e90:	f883 203c 	strb.w	r2, [r3, #60]	@ 0x3c

  return HAL_OK;
 8003e94:	2300      	movs	r3, #0
}
 8003e96:	4618      	mov	r0, r3
 8003e98:	3714      	adds	r7, #20
 8003e9a:	46bd      	mov	sp, r7
 8003e9c:	f85d 7b04 	ldr.w	r7, [sp], #4
 8003ea0:	4770      	bx	lr
 8003ea2:	bf00      	nop
 8003ea4:	40010000 	.word	0x40010000
 8003ea8:	40000400 	.word	0x40000400
 8003eac:	40000800 	.word	0x40000800
 8003eb0:	40000c00 	.word	0x40000c00
 8003eb4:	40010400 	.word	0x40010400
 8003eb8:	40014000 	.word	0x40014000
 8003ebc:	40001800 	.word	0x40001800

08003ec0 <malloc>:
 8003ec0:	4b02      	ldr	r3, [pc, #8]	@ (8003ecc <malloc+0xc>)
 8003ec2:	4601      	mov	r1, r0
 8003ec4:	6818      	ldr	r0, [r3, #0]
 8003ec6:	f000 b82d 	b.w	8003f24 <_malloc_r>
 8003eca:	bf00      	nop
 8003ecc:	20000430 	.word	0x20000430

08003ed0 <free>:
 8003ed0:	4b02      	ldr	r3, [pc, #8]	@ (8003edc <free+0xc>)
 8003ed2:	4601      	mov	r1, r0
 8003ed4:	6818      	ldr	r0, [r3, #0]
 8003ed6:	f000 b903 	b.w	80040e0 <_free_r>
 8003eda:	bf00      	nop
 8003edc:	20000430 	.word	0x20000430

08003ee0 <sbrk_aligned>:
 8003ee0:	b570      	push	{r4, r5, r6, lr}
 8003ee2:	4e0f      	ldr	r6, [pc, #60]	@ (8003f20 <sbrk_aligned+0x40>)
 8003ee4:	460c      	mov	r4, r1
 8003ee6:	6831      	ldr	r1, [r6, #0]
 8003ee8:	4605      	mov	r5, r0
 8003eea:	b911      	cbnz	r1, 8003ef2 <sbrk_aligned+0x12>
 8003eec:	f000 f8ae 	bl	800404c <_sbrk_r>
 8003ef0:	6030      	str	r0, [r6, #0]
 8003ef2:	4621      	mov	r1, r4
 8003ef4:	4628      	mov	r0, r5
 8003ef6:	f000 f8a9 	bl	800404c <_sbrk_r>
 8003efa:	1c43      	adds	r3, r0, #1
 8003efc:	d103      	bne.n	8003f06 <sbrk_aligned+0x26>
 8003efe:	f04f 34ff 	mov.w	r4, #4294967295	@ 0xffffffff
 8003f02:	4620      	mov	r0, r4
 8003f04:	bd70      	pop	{r4, r5, r6, pc}
 8003f06:	1cc4      	adds	r4, r0, #3
 8003f08:	f024 0403 	bic.w	r4, r4, #3
 8003f0c:	42a0      	cmp	r0, r4
 8003f0e:	d0f8      	beq.n	8003f02 <sbrk_aligned+0x22>
 8003f10:	1a21      	subs	r1, r4, r0
 8003f12:	4628      	mov	r0, r5
 8003f14:	f000 f89a 	bl	800404c <_sbrk_r>
 8003f18:	3001      	adds	r0, #1
 8003f1a:	d1f2      	bne.n	8003f02 <sbrk_aligned+0x22>
 8003f1c:	e7ef      	b.n	8003efe <sbrk_aligned+0x1e>
 8003f1e:	bf00      	nop
 8003f20:	2000b568 	.word	0x2000b568

08003f24 <_malloc_r>:
 8003f24:	e92d 43f8 	stmdb	sp!, {r3, r4, r5, r6, r7, r8, r9, lr}
 8003f28:	1ccd      	adds	r5, r1, #3
 8003f2a:	f025 0503 	bic.w	r5, r5, #3
 8003f2e:	3508      	adds	r5, #8
 8003f30:	2d0c      	cmp	r5, #12
 8003f32:	bf38      	it	cc
 8003f34:	250c      	movcc	r5, #12
 8003f36:	2d00      	cmp	r5, #0
 8003f38:	4606      	mov	r6, r0
 8003f3a:	db01      	blt.n	8003f40 <_malloc_r+0x1c>
 8003f3c:	42a9      	cmp	r1, r5
 8003f3e:	d904      	bls.n	8003f4a <_malloc_r+0x26>
 8003f40:	230c      	movs	r3, #12
 8003f42:	6033      	str	r3, [r6, #0]
 8003f44:	2000      	movs	r0, #0
 8003f46:	e8bd 83f8 	ldmia.w	sp!, {r3, r4, r5, r6, r7, r8, r9, pc}
 8003f4a:	f8df 80d4 	ldr.w	r8, [pc, #212]	@ 8004020 <_malloc_r+0xfc>
 8003f4e:	f000 f869 	bl	8004024 <__malloc_lock>
 8003f52:	f8d8 3000 	ldr.w	r3, [r8]
 8003f56:	461c      	mov	r4, r3
 8003f58:	bb44      	cbnz	r4, 8003fac <_malloc_r+0x88>
 8003f5a:	4629      	mov	r1, r5
 8003f5c:	4630      	mov	r0, r6
 8003f5e:	f7ff ffbf 	bl	8003ee0 <sbrk_aligned>
 8003f62:	1c43      	adds	r3, r0, #1
 8003f64:	4604      	mov	r4, r0
 8003f66:	d158      	bne.n	800401a <_malloc_r+0xf6>
 8003f68:	f8d8 4000 	ldr.w	r4, [r8]
 8003f6c:	4627      	mov	r7, r4
 8003f6e:	2f00      	cmp	r7, #0
 8003f70:	d143      	bne.n	8003ffa <_malloc_r+0xd6>
 8003f72:	2c00      	cmp	r4, #0
 8003f74:	d04b      	beq.n	800400e <_malloc_r+0xea>
 8003f76:	6823      	ldr	r3, [r4, #0]
 8003f78:	4639      	mov	r1, r7
 8003f7a:	4630      	mov	r0, r6
 8003f7c:	eb04 0903 	add.w	r9, r4, r3
 8003f80:	f000 f864 	bl	800404c <_sbrk_r>
 8003f84:	4581      	cmp	r9, r0
 8003f86:	d142      	bne.n	800400e <_malloc_r+0xea>
 8003f88:	6821      	ldr	r1, [r4, #0]
 8003f8a:	1a6d      	subs	r5, r5, r1
 8003f8c:	4629      	mov	r1, r5
 8003f8e:	4630      	mov	r0, r6
 8003f90:	f7ff ffa6 	bl	8003ee0 <sbrk_aligned>
 8003f94:	3001      	adds	r0, #1
 8003f96:	d03a      	beq.n	800400e <_malloc_r+0xea>
 8003f98:	6823      	ldr	r3, [r4, #0]
 8003f9a:	442b      	add	r3, r5
 8003f9c:	6023      	str	r3, [r4, #0]
 8003f9e:	f8d8 3000 	ldr.w	r3, [r8]
 8003fa2:	685a      	ldr	r2, [r3, #4]
 8003fa4:	bb62      	cbnz	r2, 8004000 <_malloc_r+0xdc>
 8003fa6:	f8c8 7000 	str.w	r7, [r8]
 8003faa:	e00f      	b.n	8003fcc <_malloc_r+0xa8>
 8003fac:	6822      	ldr	r2, [r4, #0]
 8003fae:	1b52      	subs	r2, r2, r5
 8003fb0:	d420      	bmi.n	8003ff4 <_malloc_r+0xd0>
 8003fb2:	2a0b      	cmp	r2, #11
 8003fb4:	d917      	bls.n	8003fe6 <_malloc_r+0xc2>
 8003fb6:	1961      	adds	r1, r4, r5
 8003fb8:	42a3      	cmp	r3, r4
 8003fba:	6025      	str	r5, [r4, #0]
 8003fbc:	bf18      	it	ne
 8003fbe:	6059      	strne	r1, [r3, #4]
 8003fc0:	6863      	ldr	r3, [r4, #4]
 8003fc2:	bf08      	it	eq
 8003fc4:	f8c8 1000 	streq.w	r1, [r8]
 8003fc8:	5162      	str	r2, [r4, r5]
 8003fca:	604b      	str	r3, [r1, #4]
 8003fcc:	4630      	mov	r0, r6
 8003fce:	f000 f82f 	bl	8004030 <__malloc_unlock>
 8003fd2:	f104 000b 	add.w	r0, r4, #11
 8003fd6:	1d23      	adds	r3, r4, #4
 8003fd8:	f020 0007 	bic.w	r0, r0, #7
 8003fdc:	1ac2      	subs	r2, r0, r3
 8003fde:	bf1c      	itt	ne
 8003fe0:	1a1b      	subne	r3, r3, r0
 8003fe2:	50a3      	strne	r3, [r4, r2]
 8003fe4:	e7af      	b.n	8003f46 <_malloc_r+0x22>
 8003fe6:	6862      	ldr	r2, [r4, #4]
 8003fe8:	42a3      	cmp	r3, r4
 8003fea:	bf0c      	ite	eq
 8003fec:	f8c8 2000 	streq.w	r2, [r8]
 8003ff0:	605a      	strne	r2, [r3, #4]
 8003ff2:	e7eb      	b.n	8003fcc <_malloc_r+0xa8>
 8003ff4:	4623      	mov	r3, r4
 8003ff6:	6864      	ldr	r4, [r4, #4]
 8003ff8:	e7ae      	b.n	8003f58 <_malloc_r+0x34>
 8003ffa:	463c      	mov	r4, r7
 8003ffc:	687f      	ldr	r7, [r7, #4]
 8003ffe:	e7b6      	b.n	8003f6e <_malloc_r+0x4a>
 8004000:	461a      	mov	r2, r3
 8004002:	685b      	ldr	r3, [r3, #4]
 8004004:	42a3      	cmp	r3, r4
 8004006:	d1fb      	bne.n	8004000 <_malloc_r+0xdc>
 8004008:	2300      	movs	r3, #0
 800400a:	6053      	str	r3, [r2, #4]
 800400c:	e7de      	b.n	8003fcc <_malloc_r+0xa8>
 800400e:	230c      	movs	r3, #12
 8004010:	6033      	str	r3, [r6, #0]
 8004012:	4630      	mov	r0, r6
 8004014:	f000 f80c 	bl	8004030 <__malloc_unlock>
 8004018:	e794      	b.n	8003f44 <_malloc_r+0x20>
 800401a:	6005      	str	r5, [r0, #0]
 800401c:	e7d6      	b.n	8003fcc <_malloc_r+0xa8>
 800401e:	bf00      	nop
 8004020:	2000b56c 	.word	0x2000b56c

08004024 <__malloc_lock>:
 8004024:	4801      	ldr	r0, [pc, #4]	@ (800402c <__malloc_lock+0x8>)
 8004026:	f000 b84b 	b.w	80040c0 <__retarget_lock_acquire_recursive>
 800402a:	bf00      	nop
 800402c:	2000b6ac 	.word	0x2000b6ac

08004030 <__malloc_unlock>:
 8004030:	4801      	ldr	r0, [pc, #4]	@ (8004038 <__malloc_unlock+0x8>)
 8004032:	f000 b846 	b.w	80040c2 <__retarget_lock_release_recursive>
 8004036:	bf00      	nop
 8004038:	2000b6ac 	.word	0x2000b6ac

0800403c <memset>:
 800403c:	4402      	add	r2, r0
 800403e:	4603      	mov	r3, r0
 8004040:	4293      	cmp	r3, r2
 8004042:	d100      	bne.n	8004046 <memset+0xa>
 8004044:	4770      	bx	lr
 8004046:	f803 1b01 	strb.w	r1, [r3], #1
 800404a:	e7f9      	b.n	8004040 <memset+0x4>

0800404c <_sbrk_r>:
 800404c:	b538      	push	{r3, r4, r5, lr}
 800404e:	4d06      	ldr	r5, [pc, #24]	@ (8004068 <_sbrk_r+0x1c>)
 8004050:	2300      	movs	r3, #0
 8004052:	4604      	mov	r4, r0
 8004054:	4608      	mov	r0, r1
 8004056:	602b      	str	r3, [r5, #0]
 8004058:	f7fe fd58 	bl	8002b0c <_sbrk>
 800405c:	1c43      	adds	r3, r0, #1
 800405e:	d102      	bne.n	8004066 <_sbrk_r+0x1a>
 8004060:	682b      	ldr	r3, [r5, #0]
 8004062:	b103      	cbz	r3, 8004066 <_sbrk_r+0x1a>
 8004064:	6023      	str	r3, [r4, #0]
 8004066:	bd38      	pop	{r3, r4, r5, pc}
 8004068:	2000b6a8 	.word	0x2000b6a8

0800406c <__errno>:
 800406c:	4b01      	ldr	r3, [pc, #4]	@ (8004074 <__errno+0x8>)
 800406e:	6818      	ldr	r0, [r3, #0]
 8004070:	4770      	bx	lr
 8004072:	bf00      	nop
 8004074:	20000430 	.word	0x20000430

08004078 <__libc_init_array>:
 8004078:	b570      	push	{r4, r5, r6, lr}
 800407a:	4d0d      	ldr	r5, [pc, #52]	@ (80040b0 <__libc_init_array+0x38>)
 800407c:	4c0d      	ldr	r4, [pc, #52]	@ (80040b4 <__libc_init_array+0x3c>)
 800407e:	1b64      	subs	r4, r4, r5
 8004080:	10a4      	asrs	r4, r4, #2
 8004082:	2600      	movs	r6, #0
 8004084:	42a6      	cmp	r6, r4
 8004086:	d109      	bne.n	800409c <__libc_init_array+0x24>
 8004088:	4d0b      	ldr	r5, [pc, #44]	@ (80040b8 <__libc_init_array+0x40>)
 800408a:	4c0c      	ldr	r4, [pc, #48]	@ (80040bc <__libc_init_array+0x44>)
 800408c:	f000 fe68 	bl	8004d60 <_init>
 8004090:	1b64      	subs	r4, r4, r5
 8004092:	10a4      	asrs	r4, r4, #2
 8004094:	2600      	movs	r6, #0
 8004096:	42a6      	cmp	r6, r4
 8004098:	d105      	bne.n	80040a6 <__libc_init_array+0x2e>
 800409a:	bd70      	pop	{r4, r5, r6, pc}
 800409c:	f855 3b04 	ldr.w	r3, [r5], #4
 80040a0:	4798      	blx	r3
 80040a2:	3601      	adds	r6, #1
 80040a4:	e7ee      	b.n	8004084 <__libc_init_array+0xc>
 80040a6:	f855 3b04 	ldr.w	r3, [r5], #4
 80040aa:	4798      	blx	r3
 80040ac:	3601      	adds	r6, #1
 80040ae:	e7f2      	b.n	8004096 <__libc_init_array+0x1e>
 80040b0:	08077cc0 	.word	0x08077cc0
 80040b4:	08077cc0 	.word	0x08077cc0
 80040b8:	08077cc0 	.word	0x08077cc0
 80040bc:	08077cc4 	.word	0x08077cc4

080040c0 <__retarget_lock_acquire_recursive>:
 80040c0:	4770      	bx	lr

080040c2 <__retarget_lock_release_recursive>:
 80040c2:	4770      	bx	lr

080040c4 <memcpy>:
 80040c4:	440a      	add	r2, r1
 80040c6:	4291      	cmp	r1, r2
 80040c8:	f100 33ff 	add.w	r3, r0, #4294967295	@ 0xffffffff
 80040cc:	d100      	bne.n	80040d0 <memcpy+0xc>
 80040ce:	4770      	bx	lr
 80040d0:	b510      	push	{r4, lr}
 80040d2:	f811 4b01 	ldrb.w	r4, [r1], #1
 80040d6:	f803 4f01 	strb.w	r4, [r3, #1]!
 80040da:	4291      	cmp	r1, r2
 80040dc:	d1f9      	bne.n	80040d2 <memcpy+0xe>
 80040de:	bd10      	pop	{r4, pc}

080040e0 <_free_r>:
 80040e0:	b538      	push	{r3, r4, r5, lr}
 80040e2:	4605      	mov	r5, r0
 80040e4:	2900      	cmp	r1, #0
 80040e6:	d041      	beq.n	800416c <_free_r+0x8c>
 80040e8:	f851 3c04 	ldr.w	r3, [r1, #-4]
 80040ec:	1f0c      	subs	r4, r1, #4
 80040ee:	2b00      	cmp	r3, #0
 80040f0:	bfb8      	it	lt
 80040f2:	18e4      	addlt	r4, r4, r3
 80040f4:	f7ff ff96 	bl	8004024 <__malloc_lock>
 80040f8:	4a1d      	ldr	r2, [pc, #116]	@ (8004170 <_free_r+0x90>)
 80040fa:	6813      	ldr	r3, [r2, #0]
 80040fc:	b933      	cbnz	r3, 800410c <_free_r+0x2c>
 80040fe:	6063      	str	r3, [r4, #4]
 8004100:	6014      	str	r4, [r2, #0]
 8004102:	4628      	mov	r0, r5
 8004104:	e8bd 4038 	ldmia.w	sp!, {r3, r4, r5, lr}
 8004108:	f7ff bf92 	b.w	8004030 <__malloc_unlock>
 800410c:	42a3      	cmp	r3, r4
 800410e:	d908      	bls.n	8004122 <_free_r+0x42>
 8004110:	6820      	ldr	r0, [r4, #0]
 8004112:	1821      	adds	r1, r4, r0
 8004114:	428b      	cmp	r3, r1
 8004116:	bf01      	itttt	eq
 8004118:	6819      	ldreq	r1, [r3, #0]
 800411a:	685b      	ldreq	r3, [r3, #4]
 800411c:	1809      	addeq	r1, r1, r0
 800411e:	6021      	streq	r1, [r4, #0]
 8004120:	e7ed      	b.n	80040fe <_free_r+0x1e>
 8004122:	461a      	mov	r2, r3
 8004124:	685b      	ldr	r3, [r3, #4]
 8004126:	b10b      	cbz	r3, 800412c <_free_r+0x4c>
 8004128:	42a3      	cmp	r3, r4
 800412a:	d9fa      	bls.n	8004122 <_free_r+0x42>
 800412c:	6811      	ldr	r1, [r2, #0]
 800412e:	1850      	adds	r0, r2, r1
 8004130:	42a0      	cmp	r0, r4
 8004132:	d10b      	bne.n	800414c <_free_r+0x6c>
 8004134:	6820      	ldr	r0, [r4, #0]
 8004136:	4401      	add	r1, r0
 8004138:	1850      	adds	r0, r2, r1
 800413a:	4283      	cmp	r3, r0
 800413c:	6011      	str	r1, [r2, #0]
 800413e:	d1e0      	bne.n	8004102 <_free_r+0x22>
 8004140:	6818      	ldr	r0, [r3, #0]
 8004142:	685b      	ldr	r3, [r3, #4]
 8004144:	6053      	str	r3, [r2, #4]
 8004146:	4408      	add	r0, r1
 8004148:	6010      	str	r0, [r2, #0]
 800414a:	e7da      	b.n	8004102 <_free_r+0x22>
 800414c:	d902      	bls.n	8004154 <_free_r+0x74>
 800414e:	230c      	movs	r3, #12
 8004150:	602b      	str	r3, [r5, #0]
 8004152:	e7d6      	b.n	8004102 <_free_r+0x22>
 8004154:	6820      	ldr	r0, [r4, #0]
 8004156:	1821      	adds	r1, r4, r0
 8004158:	428b      	cmp	r3, r1
 800415a:	bf04      	itt	eq
 800415c:	6819      	ldreq	r1, [r3, #0]
 800415e:	685b      	ldreq	r3, [r3, #4]
 8004160:	6063      	str	r3, [r4, #4]
 8004162:	bf04      	itt	eq
 8004164:	1809      	addeq	r1, r1, r0
 8004166:	6021      	streq	r1, [r4, #0]
 8004168:	6054      	str	r4, [r2, #4]
 800416a:	e7ca      	b.n	8004102 <_free_r+0x22>
 800416c:	bd38      	pop	{r3, r4, r5, pc}
 800416e:	bf00      	nop
 8004170:	2000b56c 	.word	0x2000b56c

08004174 <sqrtf>:
 8004174:	b508      	push	{r3, lr}
 8004176:	ed2d 8b02 	vpush	{d8}
 800417a:	eeb0 8a40 	vmov.f32	s16, s0
 800417e:	f000 f8f7 	bl	8004370 <__ieee754_sqrtf>
 8004182:	eeb4 8a48 	vcmp.f32	s16, s16
 8004186:	eef1 fa10 	vmrs	APSR_nzcv, fpscr
 800418a:	d60c      	bvs.n	80041a6 <sqrtf+0x32>
 800418c:	eddf 8a07 	vldr	s17, [pc, #28]	@ 80041ac <sqrtf+0x38>
 8004190:	eeb4 8ae8 	vcmpe.f32	s16, s17
 8004194:	eef1 fa10 	vmrs	APSR_nzcv, fpscr
 8004198:	d505      	bpl.n	80041a6 <sqrtf+0x32>
 800419a:	f7ff ff67 	bl	800406c <__errno>
 800419e:	ee88 0aa8 	vdiv.f32	s0, s17, s17
 80041a2:	2321      	movs	r3, #33	@ 0x21
 80041a4:	6003      	str	r3, [r0, #0]
 80041a6:	ecbd 8b02 	vpop	{d8}
 80041aa:	bd08      	pop	{r3, pc}
 80041ac:	00000000 	.word	0x00000000

080041b0 <cosf>:
 80041b0:	ee10 3a10 	vmov	r3, s0
 80041b4:	b507      	push	{r0, r1, r2, lr}
 80041b6:	4a1e      	ldr	r2, [pc, #120]	@ (8004230 <cosf+0x80>)
 80041b8:	f023 4300 	bic.w	r3, r3, #2147483648	@ 0x80000000
 80041bc:	4293      	cmp	r3, r2
 80041be:	d806      	bhi.n	80041ce <cosf+0x1e>
 80041c0:	eddf 0a1c 	vldr	s1, [pc, #112]	@ 8004234 <cosf+0x84>
 80041c4:	b003      	add	sp, #12
 80041c6:	f85d eb04 	ldr.w	lr, [sp], #4
 80041ca:	f000 b8d5 	b.w	8004378 <__kernel_cosf>
 80041ce:	f1b3 4fff 	cmp.w	r3, #2139095040	@ 0x7f800000
 80041d2:	d304      	bcc.n	80041de <cosf+0x2e>
 80041d4:	ee30 0a40 	vsub.f32	s0, s0, s0
 80041d8:	b003      	add	sp, #12
 80041da:	f85d fb04 	ldr.w	pc, [sp], #4
 80041de:	4668      	mov	r0, sp
 80041e0:	f000 f96a 	bl	80044b8 <__ieee754_rem_pio2f>
 80041e4:	f000 0003 	and.w	r0, r0, #3
 80041e8:	2801      	cmp	r0, #1
 80041ea:	d009      	beq.n	8004200 <cosf+0x50>
 80041ec:	2802      	cmp	r0, #2
 80041ee:	d010      	beq.n	8004212 <cosf+0x62>
 80041f0:	b9b0      	cbnz	r0, 8004220 <cosf+0x70>
 80041f2:	eddd 0a01 	vldr	s1, [sp, #4]
 80041f6:	ed9d 0a00 	vldr	s0, [sp]
 80041fa:	f000 f8bd 	bl	8004378 <__kernel_cosf>
 80041fe:	e7eb      	b.n	80041d8 <cosf+0x28>
 8004200:	eddd 0a01 	vldr	s1, [sp, #4]
 8004204:	ed9d 0a00 	vldr	s0, [sp]
 8004208:	f000 f90e 	bl	8004428 <__kernel_sinf>
 800420c:	eeb1 0a40 	vneg.f32	s0, s0
 8004210:	e7e2      	b.n	80041d8 <cosf+0x28>
 8004212:	eddd 0a01 	vldr	s1, [sp, #4]
 8004216:	ed9d 0a00 	vldr	s0, [sp]
 800421a:	f000 f8ad 	bl	8004378 <__kernel_cosf>
 800421e:	e7f5      	b.n	800420c <cosf+0x5c>
 8004220:	eddd 0a01 	vldr	s1, [sp, #4]
 8004224:	ed9d 0a00 	vldr	s0, [sp]
 8004228:	2001      	movs	r0, #1
 800422a:	f000 f8fd 	bl	8004428 <__kernel_sinf>
 800422e:	e7d3      	b.n	80041d8 <cosf+0x28>
 8004230:	3f490fd8 	.word	0x3f490fd8
 8004234:	00000000 	.word	0x00000000

08004238 <sinf>:
 8004238:	ee10 3a10 	vmov	r3, s0
 800423c:	b507      	push	{r0, r1, r2, lr}
 800423e:	4a1f      	ldr	r2, [pc, #124]	@ (80042bc <sinf+0x84>)
 8004240:	f023 4300 	bic.w	r3, r3, #2147483648	@ 0x80000000
 8004244:	4293      	cmp	r3, r2
 8004246:	d807      	bhi.n	8004258 <sinf+0x20>
 8004248:	eddf 0a1d 	vldr	s1, [pc, #116]	@ 80042c0 <sinf+0x88>
 800424c:	2000      	movs	r0, #0
 800424e:	b003      	add	sp, #12
 8004250:	f85d eb04 	ldr.w	lr, [sp], #4
 8004254:	f000 b8e8 	b.w	8004428 <__kernel_sinf>
 8004258:	f1b3 4fff 	cmp.w	r3, #2139095040	@ 0x7f800000
 800425c:	d304      	bcc.n	8004268 <sinf+0x30>
 800425e:	ee30 0a40 	vsub.f32	s0, s0, s0
 8004262:	b003      	add	sp, #12
 8004264:	f85d fb04 	ldr.w	pc, [sp], #4
 8004268:	4668      	mov	r0, sp
 800426a:	f000 f925 	bl	80044b8 <__ieee754_rem_pio2f>
 800426e:	f000 0003 	and.w	r0, r0, #3
 8004272:	2801      	cmp	r0, #1
 8004274:	d00a      	beq.n	800428c <sinf+0x54>
 8004276:	2802      	cmp	r0, #2
 8004278:	d00f      	beq.n	800429a <sinf+0x62>
 800427a:	b9c0      	cbnz	r0, 80042ae <sinf+0x76>
 800427c:	eddd 0a01 	vldr	s1, [sp, #4]
 8004280:	ed9d 0a00 	vldr	s0, [sp]
 8004284:	2001      	movs	r0, #1
 8004286:	f000 f8cf 	bl	8004428 <__kernel_sinf>
 800428a:	e7ea      	b.n	8004262 <sinf+0x2a>
 800428c:	eddd 0a01 	vldr	s1, [sp, #4]
 8004290:	ed9d 0a00 	vldr	s0, [sp]
 8004294:	f000 f870 	bl	8004378 <__kernel_cosf>
 8004298:	e7e3      	b.n	8004262 <sinf+0x2a>
 800429a:	eddd 0a01 	vldr	s1, [sp, #4]
 800429e:	ed9d 0a00 	vldr	s0, [sp]
 80042a2:	2001      	movs	r0, #1
 80042a4:	f000 f8c0 	bl	8004428 <__kernel_sinf>
 80042a8:	eeb1 0a40 	vneg.f32	s0, s0
 80042ac:	e7d9      	b.n	8004262 <sinf+0x2a>
 80042ae:	eddd 0a01 	vldr	s1, [sp, #4]
 80042b2:	ed9d 0a00 	vldr	s0, [sp]
 80042b6:	f000 f85f 	bl	8004378 <__kernel_cosf>
 80042ba:	e7f5      	b.n	80042a8 <sinf+0x70>
 80042bc:	3f490fd8 	.word	0x3f490fd8
 80042c0:	00000000 	.word	0x00000000

080042c4 <fmaxf>:
 80042c4:	b508      	push	{r3, lr}
 80042c6:	ed2d 8b02 	vpush	{d8}
 80042ca:	eeb0 8a40 	vmov.f32	s16, s0
 80042ce:	eef0 8a60 	vmov.f32	s17, s1
 80042d2:	f000 f831 	bl	8004338 <__fpclassifyf>
 80042d6:	b930      	cbnz	r0, 80042e6 <fmaxf+0x22>
 80042d8:	eeb0 8a68 	vmov.f32	s16, s17
 80042dc:	eeb0 0a48 	vmov.f32	s0, s16
 80042e0:	ecbd 8b02 	vpop	{d8}
 80042e4:	bd08      	pop	{r3, pc}
 80042e6:	eeb0 0a68 	vmov.f32	s0, s17
 80042ea:	f000 f825 	bl	8004338 <__fpclassifyf>
 80042ee:	2800      	cmp	r0, #0
 80042f0:	d0f4      	beq.n	80042dc <fmaxf+0x18>
 80042f2:	eeb4 8ae8 	vcmpe.f32	s16, s17
 80042f6:	eef1 fa10 	vmrs	APSR_nzcv, fpscr
 80042fa:	dded      	ble.n	80042d8 <fmaxf+0x14>
 80042fc:	e7ee      	b.n	80042dc <fmaxf+0x18>

080042fe <fminf>:
 80042fe:	b508      	push	{r3, lr}
 8004300:	ed2d 8b02 	vpush	{d8}
 8004304:	eeb0 8a40 	vmov.f32	s16, s0
 8004308:	eef0 8a60 	vmov.f32	s17, s1
 800430c:	f000 f814 	bl	8004338 <__fpclassifyf>
 8004310:	b930      	cbnz	r0, 8004320 <fminf+0x22>
 8004312:	eeb0 8a68 	vmov.f32	s16, s17
 8004316:	eeb0 0a48 	vmov.f32	s0, s16
 800431a:	ecbd 8b02 	vpop	{d8}
 800431e:	bd08      	pop	{r3, pc}
 8004320:	eeb0 0a68 	vmov.f32	s0, s17
 8004324:	f000 f808 	bl	8004338 <__fpclassifyf>
 8004328:	2800      	cmp	r0, #0
 800432a:	d0f4      	beq.n	8004316 <fminf+0x18>
 800432c:	eeb4 8ae8 	vcmpe.f32	s16, s17
 8004330:	eef1 fa10 	vmrs	APSR_nzcv, fpscr
 8004334:	d5ed      	bpl.n	8004312 <fminf+0x14>
 8004336:	e7ee      	b.n	8004316 <fminf+0x18>

08004338 <__fpclassifyf>:
 8004338:	ee10 3a10 	vmov	r3, s0
 800433c:	f033 4000 	bics.w	r0, r3, #2147483648	@ 0x80000000
 8004340:	d00d      	beq.n	800435e <__fpclassifyf+0x26>
 8004342:	f5a0 0300 	sub.w	r3, r0, #8388608	@ 0x800000
 8004346:	f1b3 4ffe 	cmp.w	r3, #2130706432	@ 0x7f000000
 800434a:	d30a      	bcc.n	8004362 <__fpclassifyf+0x2a>
 800434c:	4b07      	ldr	r3, [pc, #28]	@ (800436c <__fpclassifyf+0x34>)
 800434e:	1e42      	subs	r2, r0, #1
 8004350:	429a      	cmp	r2, r3
 8004352:	d908      	bls.n	8004366 <__fpclassifyf+0x2e>
 8004354:	f1a0 43ff 	sub.w	r3, r0, #2139095040	@ 0x7f800000
 8004358:	4258      	negs	r0, r3
 800435a:	4158      	adcs	r0, r3
 800435c:	4770      	bx	lr
 800435e:	2002      	movs	r0, #2
 8004360:	4770      	bx	lr
 8004362:	2004      	movs	r0, #4
 8004364:	4770      	bx	lr
 8004366:	2003      	movs	r0, #3
 8004368:	4770      	bx	lr
 800436a:	bf00      	nop
 800436c:	007ffffe 	.word	0x007ffffe

08004370 <__ieee754_sqrtf>:
 8004370:	eeb1 0ac0 	vsqrt.f32	s0, s0
 8004374:	4770      	bx	lr
	...

08004378 <__kernel_cosf>:
 8004378:	ee10 3a10 	vmov	r3, s0
 800437c:	f023 4300 	bic.w	r3, r3, #2147483648	@ 0x80000000
 8004380:	f1b3 5f48 	cmp.w	r3, #838860800	@ 0x32000000
 8004384:	eef0 6a40 	vmov.f32	s13, s0
 8004388:	eeb7 0a00 	vmov.f32	s0, #112	@ 0x3f800000  1.0
 800438c:	d204      	bcs.n	8004398 <__kernel_cosf+0x20>
 800438e:	eefd 7ae6 	vcvt.s32.f32	s15, s13
 8004392:	ee17 2a90 	vmov	r2, s15
 8004396:	b342      	cbz	r2, 80043ea <__kernel_cosf+0x72>
 8004398:	ee26 7aa6 	vmul.f32	s14, s13, s13
 800439c:	eddf 7a1a 	vldr	s15, [pc, #104]	@ 8004408 <__kernel_cosf+0x90>
 80043a0:	ed9f 6a1a 	vldr	s12, [pc, #104]	@ 800440c <__kernel_cosf+0x94>
 80043a4:	4a1a      	ldr	r2, [pc, #104]	@ (8004410 <__kernel_cosf+0x98>)
 80043a6:	eea7 6a27 	vfma.f32	s12, s14, s15
 80043aa:	4293      	cmp	r3, r2
 80043ac:	eddf 7a19 	vldr	s15, [pc, #100]	@ 8004414 <__kernel_cosf+0x9c>
 80043b0:	eee6 7a07 	vfma.f32	s15, s12, s14
 80043b4:	ed9f 6a18 	vldr	s12, [pc, #96]	@ 8004418 <__kernel_cosf+0xa0>
 80043b8:	eea7 6a87 	vfma.f32	s12, s15, s14
 80043bc:	eddf 7a17 	vldr	s15, [pc, #92]	@ 800441c <__kernel_cosf+0xa4>
 80043c0:	eee6 7a07 	vfma.f32	s15, s12, s14
 80043c4:	ed9f 6a16 	vldr	s12, [pc, #88]	@ 8004420 <__kernel_cosf+0xa8>
 80043c8:	eea7 6a87 	vfma.f32	s12, s15, s14
 80043cc:	ee60 0ae6 	vnmul.f32	s1, s1, s13
 80043d0:	ee26 6a07 	vmul.f32	s12, s12, s14
 80043d4:	eef6 7a00 	vmov.f32	s15, #96	@ 0x3f000000  0.5
 80043d8:	eee7 0a06 	vfma.f32	s1, s14, s12
 80043dc:	ee67 7a27 	vmul.f32	s15, s14, s15
 80043e0:	d804      	bhi.n	80043ec <__kernel_cosf+0x74>
 80043e2:	ee77 7ae0 	vsub.f32	s15, s15, s1
 80043e6:	ee30 0a67 	vsub.f32	s0, s0, s15
 80043ea:	4770      	bx	lr
 80043ec:	4a0d      	ldr	r2, [pc, #52]	@ (8004424 <__kernel_cosf+0xac>)
 80043ee:	4293      	cmp	r3, r2
 80043f0:	bf9a      	itte	ls
 80043f2:	f103 437f 	addls.w	r3, r3, #4278190080	@ 0xff000000
 80043f6:	ee07 3a10 	vmovls	s14, r3
 80043fa:	eeb5 7a02 	vmovhi.f32	s14, #82	@ 0x3e900000  0.2812500
 80043fe:	ee30 0a47 	vsub.f32	s0, s0, s14
 8004402:	ee77 7ac7 	vsub.f32	s15, s15, s14
 8004406:	e7ec      	b.n	80043e2 <__kernel_cosf+0x6a>
 8004408:	ad47d74e 	.word	0xad47d74e
 800440c:	310f74f6 	.word	0x310f74f6
 8004410:	3e999999 	.word	0x3e999999
 8004414:	b493f27c 	.word	0xb493f27c
 8004418:	37d00d01 	.word	0x37d00d01
 800441c:	bab60b61 	.word	0xbab60b61
 8004420:	3d2aaaab 	.word	0x3d2aaaab
 8004424:	3f480000 	.word	0x3f480000

08004428 <__kernel_sinf>:
 8004428:	ee10 3a10 	vmov	r3, s0
 800442c:	f023 4300 	bic.w	r3, r3, #2147483648	@ 0x80000000
 8004430:	f1b3 5f48 	cmp.w	r3, #838860800	@ 0x32000000
 8004434:	d204      	bcs.n	8004440 <__kernel_sinf+0x18>
 8004436:	eefd 7ac0 	vcvt.s32.f32	s15, s0
 800443a:	ee17 3a90 	vmov	r3, s15
 800443e:	b35b      	cbz	r3, 8004498 <__kernel_sinf+0x70>
 8004440:	ee20 7a00 	vmul.f32	s14, s0, s0
 8004444:	eddf 7a15 	vldr	s15, [pc, #84]	@ 800449c <__kernel_sinf+0x74>
 8004448:	ed9f 6a15 	vldr	s12, [pc, #84]	@ 80044a0 <__kernel_sinf+0x78>
 800444c:	eea7 6a27 	vfma.f32	s12, s14, s15
 8004450:	eddf 7a14 	vldr	s15, [pc, #80]	@ 80044a4 <__kernel_sinf+0x7c>
 8004454:	eee6 7a07 	vfma.f32	s15, s12, s14
 8004458:	ed9f 6a13 	vldr	s12, [pc, #76]	@ 80044a8 <__kernel_sinf+0x80>
 800445c:	eea7 6a87 	vfma.f32	s12, s15, s14
 8004460:	eddf 7a12 	vldr	s15, [pc, #72]	@ 80044ac <__kernel_sinf+0x84>
 8004464:	ee60 6a07 	vmul.f32	s13, s0, s14
 8004468:	eee6 7a07 	vfma.f32	s15, s12, s14
 800446c:	b930      	cbnz	r0, 800447c <__kernel_sinf+0x54>
 800446e:	ed9f 6a10 	vldr	s12, [pc, #64]	@ 80044b0 <__kernel_sinf+0x88>
 8004472:	eea7 6a27 	vfma.f32	s12, s14, s15
 8004476:	eea6 0a26 	vfma.f32	s0, s12, s13
 800447a:	4770      	bx	lr
 800447c:	ee67 7ae6 	vnmul.f32	s15, s15, s13
 8004480:	eeb6 6a00 	vmov.f32	s12, #96	@ 0x3f000000  0.5
 8004484:	eee0 7a86 	vfma.f32	s15, s1, s12
 8004488:	eed7 0a87 	vfnms.f32	s1, s15, s14
 800448c:	eddf 7a09 	vldr	s15, [pc, #36]	@ 80044b4 <__kernel_sinf+0x8c>
 8004490:	eee6 0aa7 	vfma.f32	s1, s13, s15
 8004494:	ee30 0a60 	vsub.f32	s0, s0, s1
 8004498:	4770      	bx	lr
 800449a:	bf00      	nop
 800449c:	2f2ec9d3 	.word	0x2f2ec9d3
 80044a0:	b2d72f34 	.word	0xb2d72f34
 80044a4:	3638ef1b 	.word	0x3638ef1b
 80044a8:	b9500d01 	.word	0xb9500d01
 80044ac:	3c088889 	.word	0x3c088889
 80044b0:	be2aaaab 	.word	0xbe2aaaab
 80044b4:	3e2aaaab 	.word	0x3e2aaaab

080044b8 <__ieee754_rem_pio2f>:
 80044b8:	b5f0      	push	{r4, r5, r6, r7, lr}
 80044ba:	ee10 6a10 	vmov	r6, s0
 80044be:	4b88      	ldr	r3, [pc, #544]	@ (80046e0 <__ieee754_rem_pio2f+0x228>)
 80044c0:	f026 4500 	bic.w	r5, r6, #2147483648	@ 0x80000000
 80044c4:	429d      	cmp	r5, r3
 80044c6:	b087      	sub	sp, #28
 80044c8:	4604      	mov	r4, r0
 80044ca:	d805      	bhi.n	80044d8 <__ieee754_rem_pio2f+0x20>
 80044cc:	2300      	movs	r3, #0
 80044ce:	ed80 0a00 	vstr	s0, [r0]
 80044d2:	6043      	str	r3, [r0, #4]
 80044d4:	2000      	movs	r0, #0
 80044d6:	e022      	b.n	800451e <__ieee754_rem_pio2f+0x66>
 80044d8:	4b82      	ldr	r3, [pc, #520]	@ (80046e4 <__ieee754_rem_pio2f+0x22c>)
 80044da:	429d      	cmp	r5, r3
 80044dc:	d83a      	bhi.n	8004554 <__ieee754_rem_pio2f+0x9c>
 80044de:	f026 4300 	bic.w	r3, r6, #2147483648	@ 0x80000000
 80044e2:	2e00      	cmp	r6, #0
 80044e4:	ed9f 7a80 	vldr	s14, [pc, #512]	@ 80046e8 <__ieee754_rem_pio2f+0x230>
 80044e8:	4a80      	ldr	r2, [pc, #512]	@ (80046ec <__ieee754_rem_pio2f+0x234>)
 80044ea:	f023 030f 	bic.w	r3, r3, #15
 80044ee:	dd18      	ble.n	8004522 <__ieee754_rem_pio2f+0x6a>
 80044f0:	4293      	cmp	r3, r2
 80044f2:	ee70 7a47 	vsub.f32	s15, s0, s14
 80044f6:	bf09      	itett	eq
 80044f8:	ed9f 7a7d 	vldreq	s14, [pc, #500]	@ 80046f0 <__ieee754_rem_pio2f+0x238>
 80044fc:	eddf 6a7d 	vldrne	s13, [pc, #500]	@ 80046f4 <__ieee754_rem_pio2f+0x23c>
 8004500:	eddf 6a7d 	vldreq	s13, [pc, #500]	@ 80046f8 <__ieee754_rem_pio2f+0x240>
 8004504:	ee77 7ac7 	vsubeq.f32	s15, s15, s14
 8004508:	ee37 7ae6 	vsub.f32	s14, s15, s13
 800450c:	ee77 7ac7 	vsub.f32	s15, s15, s14
 8004510:	ed80 7a00 	vstr	s14, [r0]
 8004514:	ee77 7ae6 	vsub.f32	s15, s15, s13
 8004518:	edc0 7a01 	vstr	s15, [r0, #4]
 800451c:	2001      	movs	r0, #1
 800451e:	b007      	add	sp, #28
 8004520:	bdf0      	pop	{r4, r5, r6, r7, pc}
 8004522:	4293      	cmp	r3, r2
 8004524:	ee70 7a07 	vadd.f32	s15, s0, s14
 8004528:	bf09      	itett	eq
 800452a:	ed9f 7a71 	vldreq	s14, [pc, #452]	@ 80046f0 <__ieee754_rem_pio2f+0x238>
 800452e:	eddf 6a71 	vldrne	s13, [pc, #452]	@ 80046f4 <__ieee754_rem_pio2f+0x23c>
 8004532:	eddf 6a71 	vldreq	s13, [pc, #452]	@ 80046f8 <__ieee754_rem_pio2f+0x240>
 8004536:	ee77 7a87 	vaddeq.f32	s15, s15, s14
 800453a:	ee37 7aa6 	vadd.f32	s14, s15, s13
 800453e:	ee77 7ac7 	vsub.f32	s15, s15, s14
 8004542:	ed80 7a00 	vstr	s14, [r0]
 8004546:	ee77 7aa6 	vadd.f32	s15, s15, s13
 800454a:	edc0 7a01 	vstr	s15, [r0, #4]
 800454e:	f04f 30ff 	mov.w	r0, #4294967295	@ 0xffffffff
 8004552:	e7e4      	b.n	800451e <__ieee754_rem_pio2f+0x66>
 8004554:	4b69      	ldr	r3, [pc, #420]	@ (80046fc <__ieee754_rem_pio2f+0x244>)
 8004556:	429d      	cmp	r5, r3
 8004558:	d873      	bhi.n	8004642 <__ieee754_rem_pio2f+0x18a>
 800455a:	f000 f8dd 	bl	8004718 <fabsf>
 800455e:	ed9f 7a68 	vldr	s14, [pc, #416]	@ 8004700 <__ieee754_rem_pio2f+0x248>
 8004562:	eef6 7a00 	vmov.f32	s15, #96	@ 0x3f000000  0.5
 8004566:	eee0 7a07 	vfma.f32	s15, s0, s14
 800456a:	eefd 7ae7 	vcvt.s32.f32	s15, s15
 800456e:	eeb8 7ae7 	vcvt.f32.s32	s14, s15
 8004572:	ee17 0a90 	vmov	r0, s15
 8004576:	eddf 7a5c 	vldr	s15, [pc, #368]	@ 80046e8 <__ieee754_rem_pio2f+0x230>
 800457a:	eea7 0a67 	vfms.f32	s0, s14, s15
 800457e:	281f      	cmp	r0, #31
 8004580:	eddf 7a5c 	vldr	s15, [pc, #368]	@ 80046f4 <__ieee754_rem_pio2f+0x23c>
 8004584:	ee67 7a27 	vmul.f32	s15, s14, s15
 8004588:	eeb1 6a47 	vneg.f32	s12, s14
 800458c:	ee70 6a67 	vsub.f32	s13, s0, s15
 8004590:	ee16 1a90 	vmov	r1, s13
 8004594:	dc09      	bgt.n	80045aa <__ieee754_rem_pio2f+0xf2>
 8004596:	4a5b      	ldr	r2, [pc, #364]	@ (8004704 <__ieee754_rem_pio2f+0x24c>)
 8004598:	1e47      	subs	r7, r0, #1
 800459a:	f026 4300 	bic.w	r3, r6, #2147483648	@ 0x80000000
 800459e:	f852 2027 	ldr.w	r2, [r2, r7, lsl #2]
 80045a2:	f023 03ff 	bic.w	r3, r3, #255	@ 0xff
 80045a6:	4293      	cmp	r3, r2
 80045a8:	d107      	bne.n	80045ba <__ieee754_rem_pio2f+0x102>
 80045aa:	f3c1 52c7 	ubfx	r2, r1, #23, #8
 80045ae:	ebc2 52d5 	rsb	r2, r2, r5, lsr #23
 80045b2:	2a08      	cmp	r2, #8
 80045b4:	ea4f 53e5 	mov.w	r3, r5, asr #23
 80045b8:	dc14      	bgt.n	80045e4 <__ieee754_rem_pio2f+0x12c>
 80045ba:	6021      	str	r1, [r4, #0]
 80045bc:	ed94 7a00 	vldr	s14, [r4]
 80045c0:	ee30 0a47 	vsub.f32	s0, s0, s14
 80045c4:	2e00      	cmp	r6, #0
 80045c6:	ee30 0a67 	vsub.f32	s0, s0, s15
 80045ca:	ed84 0a01 	vstr	s0, [r4, #4]
 80045ce:	daa6      	bge.n	800451e <__ieee754_rem_pio2f+0x66>
 80045d0:	eeb1 7a47 	vneg.f32	s14, s14
 80045d4:	eeb1 0a40 	vneg.f32	s0, s0
 80045d8:	ed84 7a00 	vstr	s14, [r4]
 80045dc:	ed84 0a01 	vstr	s0, [r4, #4]
 80045e0:	4240      	negs	r0, r0
 80045e2:	e79c      	b.n	800451e <__ieee754_rem_pio2f+0x66>
 80045e4:	eddf 5a42 	vldr	s11, [pc, #264]	@ 80046f0 <__ieee754_rem_pio2f+0x238>
 80045e8:	eef0 6a40 	vmov.f32	s13, s0
 80045ec:	eee6 6a25 	vfma.f32	s13, s12, s11
 80045f0:	ee70 7a66 	vsub.f32	s15, s0, s13
 80045f4:	eee6 7a25 	vfma.f32	s15, s12, s11
 80045f8:	eddf 5a3f 	vldr	s11, [pc, #252]	@ 80046f8 <__ieee754_rem_pio2f+0x240>
 80045fc:	eed7 7a25 	vfnms.f32	s15, s14, s11
 8004600:	ee76 5ae7 	vsub.f32	s11, s13, s15
 8004604:	ee15 2a90 	vmov	r2, s11
 8004608:	f3c2 51c7 	ubfx	r1, r2, #23, #8
 800460c:	1a5b      	subs	r3, r3, r1
 800460e:	2b19      	cmp	r3, #25
 8004610:	dc04      	bgt.n	800461c <__ieee754_rem_pio2f+0x164>
 8004612:	edc4 5a00 	vstr	s11, [r4]
 8004616:	eeb0 0a66 	vmov.f32	s0, s13
 800461a:	e7cf      	b.n	80045bc <__ieee754_rem_pio2f+0x104>
 800461c:	eddf 5a3a 	vldr	s11, [pc, #232]	@ 8004708 <__ieee754_rem_pio2f+0x250>
 8004620:	eeb0 0a66 	vmov.f32	s0, s13
 8004624:	eea6 0a25 	vfma.f32	s0, s12, s11
 8004628:	ee76 7ac0 	vsub.f32	s15, s13, s0
 800462c:	eddf 6a37 	vldr	s13, [pc, #220]	@ 800470c <__ieee754_rem_pio2f+0x254>
 8004630:	eee6 7a25 	vfma.f32	s15, s12, s11
 8004634:	eed7 7a26 	vfnms.f32	s15, s14, s13
 8004638:	ee30 7a67 	vsub.f32	s14, s0, s15
 800463c:	ed84 7a00 	vstr	s14, [r4]
 8004640:	e7bc      	b.n	80045bc <__ieee754_rem_pio2f+0x104>
 8004642:	f1b5 4fff 	cmp.w	r5, #2139095040	@ 0x7f800000
 8004646:	d306      	bcc.n	8004656 <__ieee754_rem_pio2f+0x19e>
 8004648:	ee70 7a40 	vsub.f32	s15, s0, s0
 800464c:	edc0 7a01 	vstr	s15, [r0, #4]
 8004650:	edc0 7a00 	vstr	s15, [r0]
 8004654:	e73e      	b.n	80044d4 <__ieee754_rem_pio2f+0x1c>
 8004656:	15ea      	asrs	r2, r5, #23
 8004658:	3a86      	subs	r2, #134	@ 0x86
 800465a:	eba5 53c2 	sub.w	r3, r5, r2, lsl #23
 800465e:	ee07 3a90 	vmov	s15, r3
 8004662:	eebd 7ae7 	vcvt.s32.f32	s14, s15
 8004666:	eddf 6a2a 	vldr	s13, [pc, #168]	@ 8004710 <__ieee754_rem_pio2f+0x258>
 800466a:	eeb8 7ac7 	vcvt.f32.s32	s14, s14
 800466e:	ee77 7ac7 	vsub.f32	s15, s15, s14
 8004672:	ed8d 7a03 	vstr	s14, [sp, #12]
 8004676:	ee67 7aa6 	vmul.f32	s15, s15, s13
 800467a:	eebd 7ae7 	vcvt.s32.f32	s14, s15
 800467e:	eeb8 7ac7 	vcvt.f32.s32	s14, s14
 8004682:	ee77 7ac7 	vsub.f32	s15, s15, s14
 8004686:	ed8d 7a04 	vstr	s14, [sp, #16]
 800468a:	ee67 7aa6 	vmul.f32	s15, s15, s13
 800468e:	eef5 7a40 	vcmp.f32	s15, #0.0
 8004692:	eef1 fa10 	vmrs	APSR_nzcv, fpscr
 8004696:	edcd 7a05 	vstr	s15, [sp, #20]
 800469a:	d11e      	bne.n	80046da <__ieee754_rem_pio2f+0x222>
 800469c:	eeb5 7a40 	vcmp.f32	s14, #0.0
 80046a0:	eef1 fa10 	vmrs	APSR_nzcv, fpscr
 80046a4:	bf0c      	ite	eq
 80046a6:	2301      	moveq	r3, #1
 80046a8:	2302      	movne	r3, #2
 80046aa:	491a      	ldr	r1, [pc, #104]	@ (8004714 <__ieee754_rem_pio2f+0x25c>)
 80046ac:	9101      	str	r1, [sp, #4]
 80046ae:	2102      	movs	r1, #2
 80046b0:	9100      	str	r1, [sp, #0]
 80046b2:	a803      	add	r0, sp, #12
 80046b4:	4621      	mov	r1, r4
 80046b6:	f000 f837 	bl	8004728 <__kernel_rem_pio2f>
 80046ba:	2e00      	cmp	r6, #0
 80046bc:	f6bf af2f 	bge.w	800451e <__ieee754_rem_pio2f+0x66>
 80046c0:	edd4 7a00 	vldr	s15, [r4]
 80046c4:	eef1 7a67 	vneg.f32	s15, s15
 80046c8:	edc4 7a00 	vstr	s15, [r4]
 80046cc:	edd4 7a01 	vldr	s15, [r4, #4]
 80046d0:	eef1 7a67 	vneg.f32	s15, s15
 80046d4:	edc4 7a01 	vstr	s15, [r4, #4]
 80046d8:	e782      	b.n	80045e0 <__ieee754_rem_pio2f+0x128>
 80046da:	2303      	movs	r3, #3
 80046dc:	e7e5      	b.n	80046aa <__ieee754_rem_pio2f+0x1f2>
 80046de:	bf00      	nop
 80046e0:	3f490fd8 	.word	0x3f490fd8
 80046e4:	4016cbe3 	.word	0x4016cbe3
 80046e8:	3fc90f80 	.word	0x3fc90f80
 80046ec:	3fc90fd0 	.word	0x3fc90fd0
 80046f0:	37354400 	.word	0x37354400
 80046f4:	37354443 	.word	0x37354443
 80046f8:	2e85a308 	.word	0x2e85a308
 80046fc:	43490f80 	.word	0x43490f80
 8004700:	3f22f984 	.word	0x3f22f984
 8004704:	080778f0 	.word	0x080778f0
 8004708:	2e85a300 	.word	0x2e85a300
 800470c:	248d3132 	.word	0x248d3132
 8004710:	43800000 	.word	0x43800000
 8004714:	08077970 	.word	0x08077970

08004718 <fabsf>:
 8004718:	ee10 3a10 	vmov	r3, s0
 800471c:	f023 4300 	bic.w	r3, r3, #2147483648	@ 0x80000000
 8004720:	ee00 3a10 	vmov	s0, r3
 8004724:	4770      	bx	lr
	...

08004728 <__kernel_rem_pio2f>:
 8004728:	e92d 4ff0 	stmdb	sp!, {r4, r5, r6, r7, r8, r9, sl, fp, lr}
 800472c:	ed2d 8b04 	vpush	{d8-d9}
 8004730:	b0d9      	sub	sp, #356	@ 0x164
 8004732:	4690      	mov	r8, r2
 8004734:	9001      	str	r0, [sp, #4]
 8004736:	4ab9      	ldr	r2, [pc, #740]	@ (8004a1c <__kernel_rem_pio2f+0x2f4>)
 8004738:	9866      	ldr	r0, [sp, #408]	@ 0x198
 800473a:	f118 0f04 	cmn.w	r8, #4
 800473e:	f852 a020 	ldr.w	sl, [r2, r0, lsl #2]
 8004742:	460f      	mov	r7, r1
 8004744:	f103 3bff 	add.w	fp, r3, #4294967295	@ 0xffffffff
 8004748:	db27      	blt.n	800479a <__kernel_rem_pio2f+0x72>
 800474a:	f1b8 0203 	subs.w	r2, r8, #3
 800474e:	bf48      	it	mi
 8004750:	f108 0204 	addmi.w	r2, r8, #4
 8004754:	10d2      	asrs	r2, r2, #3
 8004756:	1c55      	adds	r5, r2, #1
 8004758:	9967      	ldr	r1, [sp, #412]	@ 0x19c
 800475a:	ed9f 7ab4 	vldr	s14, [pc, #720]	@ 8004a2c <__kernel_rem_pio2f+0x304>
 800475e:	00e8      	lsls	r0, r5, #3
 8004760:	eba2 060b 	sub.w	r6, r2, fp
 8004764:	9002      	str	r0, [sp, #8]
 8004766:	eba8 05c5 	sub.w	r5, r8, r5, lsl #3
 800476a:	eb0a 0c0b 	add.w	ip, sl, fp
 800476e:	ac1c      	add	r4, sp, #112	@ 0x70
 8004770:	eb01 0e86 	add.w	lr, r1, r6, lsl #2
 8004774:	2000      	movs	r0, #0
 8004776:	4560      	cmp	r0, ip
 8004778:	dd11      	ble.n	800479e <__kernel_rem_pio2f+0x76>
 800477a:	a91c      	add	r1, sp, #112	@ 0x70
 800477c:	eb01 0083 	add.w	r0, r1, r3, lsl #2
 8004780:	f50d 7988 	add.w	r9, sp, #272	@ 0x110
 8004784:	f04f 0c00 	mov.w	ip, #0
 8004788:	45d4      	cmp	ip, sl
 800478a:	dc27      	bgt.n	80047dc <__kernel_rem_pio2f+0xb4>
 800478c:	f8dd e004 	ldr.w	lr, [sp, #4]
 8004790:	eddf 7aa6 	vldr	s15, [pc, #664]	@ 8004a2c <__kernel_rem_pio2f+0x304>
 8004794:	4606      	mov	r6, r0
 8004796:	2400      	movs	r4, #0
 8004798:	e016      	b.n	80047c8 <__kernel_rem_pio2f+0xa0>
 800479a:	2200      	movs	r2, #0
 800479c:	e7db      	b.n	8004756 <__kernel_rem_pio2f+0x2e>
 800479e:	42c6      	cmn	r6, r0
 80047a0:	bf5d      	ittte	pl
 80047a2:	f85e 1020 	ldrpl.w	r1, [lr, r0, lsl #2]
 80047a6:	ee07 1a90 	vmovpl	s15, r1
 80047aa:	eef8 7ae7 	vcvtpl.f32.s32	s15, s15
 80047ae:	eef0 7a47 	vmovmi.f32	s15, s14
 80047b2:	ece4 7a01 	vstmia	r4!, {s15}
 80047b6:	3001      	adds	r0, #1
 80047b8:	e7dd      	b.n	8004776 <__kernel_rem_pio2f+0x4e>
 80047ba:	ecfe 6a01 	vldmia	lr!, {s13}
 80047be:	ed96 7a00 	vldr	s14, [r6]
 80047c2:	eee6 7a87 	vfma.f32	s15, s13, s14
 80047c6:	3401      	adds	r4, #1
 80047c8:	455c      	cmp	r4, fp
 80047ca:	f1a6 0604 	sub.w	r6, r6, #4
 80047ce:	ddf4      	ble.n	80047ba <__kernel_rem_pio2f+0x92>
 80047d0:	ece9 7a01 	vstmia	r9!, {s15}
 80047d4:	f10c 0c01 	add.w	ip, ip, #1
 80047d8:	3004      	adds	r0, #4
 80047da:	e7d5      	b.n	8004788 <__kernel_rem_pio2f+0x60>
 80047dc:	a908      	add	r1, sp, #32
 80047de:	eb01 018a 	add.w	r1, r1, sl, lsl #2
 80047e2:	9104      	str	r1, [sp, #16]
 80047e4:	9967      	ldr	r1, [sp, #412]	@ 0x19c
 80047e6:	eddf 8a90 	vldr	s17, [pc, #576]	@ 8004a28 <__kernel_rem_pio2f+0x300>
 80047ea:	ed9f 9a8e 	vldr	s18, [pc, #568]	@ 8004a24 <__kernel_rem_pio2f+0x2fc>
 80047ee:	eb01 0282 	add.w	r2, r1, r2, lsl #2
 80047f2:	9203      	str	r2, [sp, #12]
 80047f4:	4654      	mov	r4, sl
 80047f6:	00a2      	lsls	r2, r4, #2
 80047f8:	9205      	str	r2, [sp, #20]
 80047fa:	aa58      	add	r2, sp, #352	@ 0x160
 80047fc:	eb02 0284 	add.w	r2, r2, r4, lsl #2
 8004800:	ed12 0a14 	vldr	s0, [r2, #-80]	@ 0xffffffb0
 8004804:	a944      	add	r1, sp, #272	@ 0x110
 8004806:	aa08      	add	r2, sp, #32
 8004808:	eb01 0084 	add.w	r0, r1, r4, lsl #2
 800480c:	4694      	mov	ip, r2
 800480e:	4626      	mov	r6, r4
 8004810:	2e00      	cmp	r6, #0
 8004812:	f1a0 0004 	sub.w	r0, r0, #4
 8004816:	dc4c      	bgt.n	80048b2 <__kernel_rem_pio2f+0x18a>
 8004818:	4628      	mov	r0, r5
 800481a:	e9cd 2306 	strd	r2, r3, [sp, #24]
 800481e:	f000 f9f5 	bl	8004c0c <scalbnf>
 8004822:	eeb0 8a40 	vmov.f32	s16, s0
 8004826:	eeb4 0a00 	vmov.f32	s0, #64	@ 0x3e000000  0.125
 800482a:	ee28 0a00 	vmul.f32	s0, s16, s0
 800482e:	f000 fa53 	bl	8004cd8 <floorf>
 8004832:	eef2 7a00 	vmov.f32	s15, #32	@ 0x41000000  8.0
 8004836:	eea0 8a67 	vfms.f32	s16, s0, s15
 800483a:	2d00      	cmp	r5, #0
 800483c:	e9dd 2306 	ldrd	r2, r3, [sp, #24]
 8004840:	eefd 7ac8 	vcvt.s32.f32	s15, s16
 8004844:	ee17 9a90 	vmov	r9, s15
 8004848:	eef8 7ae7 	vcvt.f32.s32	s15, s15
 800484c:	ee38 8a67 	vsub.f32	s16, s16, s15
 8004850:	dd41      	ble.n	80048d6 <__kernel_rem_pio2f+0x1ae>
 8004852:	f104 3cff 	add.w	ip, r4, #4294967295	@ 0xffffffff
 8004856:	a908      	add	r1, sp, #32
 8004858:	f1c5 0e08 	rsb	lr, r5, #8
 800485c:	f851 602c 	ldr.w	r6, [r1, ip, lsl #2]
 8004860:	fa46 f00e 	asr.w	r0, r6, lr
 8004864:	4481      	add	r9, r0
 8004866:	fa00 f00e 	lsl.w	r0, r0, lr
 800486a:	1a36      	subs	r6, r6, r0
 800486c:	f1c5 0007 	rsb	r0, r5, #7
 8004870:	f841 602c 	str.w	r6, [r1, ip, lsl #2]
 8004874:	4106      	asrs	r6, r0
 8004876:	2e00      	cmp	r6, #0
 8004878:	dd3c      	ble.n	80048f4 <__kernel_rem_pio2f+0x1cc>
 800487a:	f04f 0e00 	mov.w	lr, #0
 800487e:	f109 0901 	add.w	r9, r9, #1
 8004882:	4670      	mov	r0, lr
 8004884:	4574      	cmp	r4, lr
 8004886:	dc68      	bgt.n	800495a <__kernel_rem_pio2f+0x232>
 8004888:	2d00      	cmp	r5, #0
 800488a:	dd03      	ble.n	8004894 <__kernel_rem_pio2f+0x16c>
 800488c:	2d01      	cmp	r5, #1
 800488e:	d074      	beq.n	800497a <__kernel_rem_pio2f+0x252>
 8004890:	2d02      	cmp	r5, #2
 8004892:	d07d      	beq.n	8004990 <__kernel_rem_pio2f+0x268>
 8004894:	2e02      	cmp	r6, #2
 8004896:	d12d      	bne.n	80048f4 <__kernel_rem_pio2f+0x1cc>
 8004898:	eeb7 0a00 	vmov.f32	s0, #112	@ 0x3f800000  1.0
 800489c:	ee30 8a48 	vsub.f32	s16, s0, s16
 80048a0:	b340      	cbz	r0, 80048f4 <__kernel_rem_pio2f+0x1cc>
 80048a2:	4628      	mov	r0, r5
 80048a4:	9306      	str	r3, [sp, #24]
 80048a6:	f000 f9b1 	bl	8004c0c <scalbnf>
 80048aa:	9b06      	ldr	r3, [sp, #24]
 80048ac:	ee38 8a40 	vsub.f32	s16, s16, s0
 80048b0:	e020      	b.n	80048f4 <__kernel_rem_pio2f+0x1cc>
 80048b2:	ee60 7a28 	vmul.f32	s15, s0, s17
 80048b6:	3e01      	subs	r6, #1
 80048b8:	eefd 7ae7 	vcvt.s32.f32	s15, s15
 80048bc:	eef8 7ae7 	vcvt.f32.s32	s15, s15
 80048c0:	eea7 0ac9 	vfms.f32	s0, s15, s18
 80048c4:	eebd 0ac0 	vcvt.s32.f32	s0, s0
 80048c8:	ecac 0a01 	vstmia	ip!, {s0}
 80048cc:	ed90 0a00 	vldr	s0, [r0]
 80048d0:	ee37 0a80 	vadd.f32	s0, s15, s0
 80048d4:	e79c      	b.n	8004810 <__kernel_rem_pio2f+0xe8>
 80048d6:	d105      	bne.n	80048e4 <__kernel_rem_pio2f+0x1bc>
 80048d8:	1e60      	subs	r0, r4, #1
 80048da:	a908      	add	r1, sp, #32
 80048dc:	f851 6020 	ldr.w	r6, [r1, r0, lsl #2]
 80048e0:	11f6      	asrs	r6, r6, #7
 80048e2:	e7c8      	b.n	8004876 <__kernel_rem_pio2f+0x14e>
 80048e4:	eef6 7a00 	vmov.f32	s15, #96	@ 0x3f000000  0.5
 80048e8:	eeb4 8ae7 	vcmpe.f32	s16, s15
 80048ec:	eef1 fa10 	vmrs	APSR_nzcv, fpscr
 80048f0:	da31      	bge.n	8004956 <__kernel_rem_pio2f+0x22e>
 80048f2:	2600      	movs	r6, #0
 80048f4:	eeb5 8a40 	vcmp.f32	s16, #0.0
 80048f8:	eef1 fa10 	vmrs	APSR_nzcv, fpscr
 80048fc:	f040 8098 	bne.w	8004a30 <__kernel_rem_pio2f+0x308>
 8004900:	1e60      	subs	r0, r4, #1
 8004902:	2200      	movs	r2, #0
 8004904:	4550      	cmp	r0, sl
 8004906:	da4b      	bge.n	80049a0 <__kernel_rem_pio2f+0x278>
 8004908:	2a00      	cmp	r2, #0
 800490a:	d065      	beq.n	80049d8 <__kernel_rem_pio2f+0x2b0>
 800490c:	3c01      	subs	r4, #1
 800490e:	ab08      	add	r3, sp, #32
 8004910:	3d08      	subs	r5, #8
 8004912:	f853 3024 	ldr.w	r3, [r3, r4, lsl #2]
 8004916:	2b00      	cmp	r3, #0
 8004918:	d0f8      	beq.n	800490c <__kernel_rem_pio2f+0x1e4>
 800491a:	4628      	mov	r0, r5
 800491c:	eeb7 0a00 	vmov.f32	s0, #112	@ 0x3f800000  1.0
 8004920:	f000 f974 	bl	8004c0c <scalbnf>
 8004924:	1c63      	adds	r3, r4, #1
 8004926:	aa44      	add	r2, sp, #272	@ 0x110
 8004928:	ed9f 7a3f 	vldr	s14, [pc, #252]	@ 8004a28 <__kernel_rem_pio2f+0x300>
 800492c:	0099      	lsls	r1, r3, #2
 800492e:	eb02 0283 	add.w	r2, r2, r3, lsl #2
 8004932:	4623      	mov	r3, r4
 8004934:	2b00      	cmp	r3, #0
 8004936:	f280 80a9 	bge.w	8004a8c <__kernel_rem_pio2f+0x364>
 800493a:	4623      	mov	r3, r4
 800493c:	2b00      	cmp	r3, #0
 800493e:	f2c0 80c7 	blt.w	8004ad0 <__kernel_rem_pio2f+0x3a8>
 8004942:	aa44      	add	r2, sp, #272	@ 0x110
 8004944:	eb02 0583 	add.w	r5, r2, r3, lsl #2
 8004948:	f8df c0d4 	ldr.w	ip, [pc, #212]	@ 8004a20 <__kernel_rem_pio2f+0x2f8>
 800494c:	eddf 7a37 	vldr	s15, [pc, #220]	@ 8004a2c <__kernel_rem_pio2f+0x304>
 8004950:	2000      	movs	r0, #0
 8004952:	1ae2      	subs	r2, r4, r3
 8004954:	e0b1      	b.n	8004aba <__kernel_rem_pio2f+0x392>
 8004956:	2602      	movs	r6, #2
 8004958:	e78f      	b.n	800487a <__kernel_rem_pio2f+0x152>
 800495a:	f852 1b04 	ldr.w	r1, [r2], #4
 800495e:	b948      	cbnz	r0, 8004974 <__kernel_rem_pio2f+0x24c>
 8004960:	b121      	cbz	r1, 800496c <__kernel_rem_pio2f+0x244>
 8004962:	f5c1 7180 	rsb	r1, r1, #256	@ 0x100
 8004966:	f842 1c04 	str.w	r1, [r2, #-4]
 800496a:	2101      	movs	r1, #1
 800496c:	f10e 0e01 	add.w	lr, lr, #1
 8004970:	4608      	mov	r0, r1
 8004972:	e787      	b.n	8004884 <__kernel_rem_pio2f+0x15c>
 8004974:	f1c1 01ff 	rsb	r1, r1, #255	@ 0xff
 8004978:	e7f5      	b.n	8004966 <__kernel_rem_pio2f+0x23e>
 800497a:	f104 3cff 	add.w	ip, r4, #4294967295	@ 0xffffffff
 800497e:	aa08      	add	r2, sp, #32
 8004980:	f852 202c 	ldr.w	r2, [r2, ip, lsl #2]
 8004984:	f002 027f 	and.w	r2, r2, #127	@ 0x7f
 8004988:	a908      	add	r1, sp, #32
 800498a:	f841 202c 	str.w	r2, [r1, ip, lsl #2]
 800498e:	e781      	b.n	8004894 <__kernel_rem_pio2f+0x16c>
 8004990:	f104 3cff 	add.w	ip, r4, #4294967295	@ 0xffffffff
 8004994:	aa08      	add	r2, sp, #32
 8004996:	f852 202c 	ldr.w	r2, [r2, ip, lsl #2]
 800499a:	f002 023f 	and.w	r2, r2, #63	@ 0x3f
 800499e:	e7f3      	b.n	8004988 <__kernel_rem_pio2f+0x260>
 80049a0:	a908      	add	r1, sp, #32
 80049a2:	f851 1020 	ldr.w	r1, [r1, r0, lsl #2]
 80049a6:	3801      	subs	r0, #1
 80049a8:	430a      	orrs	r2, r1
 80049aa:	e7ab      	b.n	8004904 <__kernel_rem_pio2f+0x1dc>
 80049ac:	3201      	adds	r2, #1
 80049ae:	f850 6d04 	ldr.w	r6, [r0, #-4]!
 80049b2:	2e00      	cmp	r6, #0
 80049b4:	d0fa      	beq.n	80049ac <__kernel_rem_pio2f+0x284>
 80049b6:	9905      	ldr	r1, [sp, #20]
 80049b8:	f501 71b0 	add.w	r1, r1, #352	@ 0x160
 80049bc:	eb0d 0001 	add.w	r0, sp, r1
 80049c0:	18e6      	adds	r6, r4, r3
 80049c2:	a91c      	add	r1, sp, #112	@ 0x70
 80049c4:	f104 0c01 	add.w	ip, r4, #1
 80049c8:	384c      	subs	r0, #76	@ 0x4c
 80049ca:	eb01 0686 	add.w	r6, r1, r6, lsl #2
 80049ce:	4422      	add	r2, r4
 80049d0:	4562      	cmp	r2, ip
 80049d2:	da04      	bge.n	80049de <__kernel_rem_pio2f+0x2b6>
 80049d4:	4614      	mov	r4, r2
 80049d6:	e70e      	b.n	80047f6 <__kernel_rem_pio2f+0xce>
 80049d8:	9804      	ldr	r0, [sp, #16]
 80049da:	2201      	movs	r2, #1
 80049dc:	e7e7      	b.n	80049ae <__kernel_rem_pio2f+0x286>
 80049de:	9903      	ldr	r1, [sp, #12]
 80049e0:	f8dd e004 	ldr.w	lr, [sp, #4]
 80049e4:	f851 102c 	ldr.w	r1, [r1, ip, lsl #2]
 80049e8:	9105      	str	r1, [sp, #20]
 80049ea:	ee07 1a90 	vmov	s15, r1
 80049ee:	eef8 7ae7 	vcvt.f32.s32	s15, s15
 80049f2:	2400      	movs	r4, #0
 80049f4:	ece6 7a01 	vstmia	r6!, {s15}
 80049f8:	eddf 7a0c 	vldr	s15, [pc, #48]	@ 8004a2c <__kernel_rem_pio2f+0x304>
 80049fc:	46b1      	mov	r9, r6
 80049fe:	455c      	cmp	r4, fp
 8004a00:	dd04      	ble.n	8004a0c <__kernel_rem_pio2f+0x2e4>
 8004a02:	ece0 7a01 	vstmia	r0!, {s15}
 8004a06:	f10c 0c01 	add.w	ip, ip, #1
 8004a0a:	e7e1      	b.n	80049d0 <__kernel_rem_pio2f+0x2a8>
 8004a0c:	ecfe 6a01 	vldmia	lr!, {s13}
 8004a10:	ed39 7a01 	vldmdb	r9!, {s14}
 8004a14:	3401      	adds	r4, #1
 8004a16:	eee6 7a87 	vfma.f32	s15, s13, s14
 8004a1a:	e7f0      	b.n	80049fe <__kernel_rem_pio2f+0x2d6>
 8004a1c:	08077cb4 	.word	0x08077cb4
 8004a20:	08077c88 	.word	0x08077c88
 8004a24:	43800000 	.word	0x43800000
 8004a28:	3b800000 	.word	0x3b800000
 8004a2c:	00000000 	.word	0x00000000
 8004a30:	9b02      	ldr	r3, [sp, #8]
 8004a32:	eeb0 0a48 	vmov.f32	s0, s16
 8004a36:	eba3 0008 	sub.w	r0, r3, r8
 8004a3a:	f000 f8e7 	bl	8004c0c <scalbnf>
 8004a3e:	ed1f 7a07 	vldr	s14, [pc, #-28]	@ 8004a24 <__kernel_rem_pio2f+0x2fc>
 8004a42:	eeb4 0ac7 	vcmpe.f32	s0, s14
 8004a46:	eef1 fa10 	vmrs	APSR_nzcv, fpscr
 8004a4a:	db19      	blt.n	8004a80 <__kernel_rem_pio2f+0x358>
 8004a4c:	ed5f 7a0a 	vldr	s15, [pc, #-40]	@ 8004a28 <__kernel_rem_pio2f+0x300>
 8004a50:	ee60 7a27 	vmul.f32	s15, s0, s15
 8004a54:	aa08      	add	r2, sp, #32
 8004a56:	eefd 7ae7 	vcvt.s32.f32	s15, s15
 8004a5a:	3508      	adds	r5, #8
 8004a5c:	eef8 7ae7 	vcvt.f32.s32	s15, s15
 8004a60:	eea7 0ac7 	vfms.f32	s0, s15, s14
 8004a64:	eefd 7ae7 	vcvt.s32.f32	s15, s15
 8004a68:	eebd 0ac0 	vcvt.s32.f32	s0, s0
 8004a6c:	ee10 3a10 	vmov	r3, s0
 8004a70:	f842 3024 	str.w	r3, [r2, r4, lsl #2]
 8004a74:	ee17 3a90 	vmov	r3, s15
 8004a78:	3401      	adds	r4, #1
 8004a7a:	f842 3024 	str.w	r3, [r2, r4, lsl #2]
 8004a7e:	e74c      	b.n	800491a <__kernel_rem_pio2f+0x1f2>
 8004a80:	eebd 0ac0 	vcvt.s32.f32	s0, s0
 8004a84:	aa08      	add	r2, sp, #32
 8004a86:	ee10 3a10 	vmov	r3, s0
 8004a8a:	e7f6      	b.n	8004a7a <__kernel_rem_pio2f+0x352>
 8004a8c:	a808      	add	r0, sp, #32
 8004a8e:	f850 0023 	ldr.w	r0, [r0, r3, lsl #2]
 8004a92:	9001      	str	r0, [sp, #4]
 8004a94:	ee07 0a90 	vmov	s15, r0
 8004a98:	eef8 7ae7 	vcvt.f32.s32	s15, s15
 8004a9c:	3b01      	subs	r3, #1
 8004a9e:	ee67 7a80 	vmul.f32	s15, s15, s0
 8004aa2:	ee20 0a07 	vmul.f32	s0, s0, s14
 8004aa6:	ed62 7a01 	vstmdb	r2!, {s15}
 8004aaa:	e743      	b.n	8004934 <__kernel_rem_pio2f+0x20c>
 8004aac:	ecfc 6a01 	vldmia	ip!, {s13}
 8004ab0:	ecb5 7a01 	vldmia	r5!, {s14}
 8004ab4:	eee6 7a87 	vfma.f32	s15, s13, s14
 8004ab8:	3001      	adds	r0, #1
 8004aba:	4550      	cmp	r0, sl
 8004abc:	dc01      	bgt.n	8004ac2 <__kernel_rem_pio2f+0x39a>
 8004abe:	4282      	cmp	r2, r0
 8004ac0:	daf4      	bge.n	8004aac <__kernel_rem_pio2f+0x384>
 8004ac2:	a858      	add	r0, sp, #352	@ 0x160
 8004ac4:	eb00 0282 	add.w	r2, r0, r2, lsl #2
 8004ac8:	ed42 7a28 	vstr	s15, [r2, #-160]	@ 0xffffff60
 8004acc:	3b01      	subs	r3, #1
 8004ace:	e735      	b.n	800493c <__kernel_rem_pio2f+0x214>
 8004ad0:	9b66      	ldr	r3, [sp, #408]	@ 0x198
 8004ad2:	2b02      	cmp	r3, #2
 8004ad4:	dc09      	bgt.n	8004aea <__kernel_rem_pio2f+0x3c2>
 8004ad6:	2b00      	cmp	r3, #0
 8004ad8:	dc2b      	bgt.n	8004b32 <__kernel_rem_pio2f+0x40a>
 8004ada:	d044      	beq.n	8004b66 <__kernel_rem_pio2f+0x43e>
 8004adc:	f009 0007 	and.w	r0, r9, #7
 8004ae0:	b059      	add	sp, #356	@ 0x164
 8004ae2:	ecbd 8b04 	vpop	{d8-d9}
 8004ae6:	e8bd 8ff0 	ldmia.w	sp!, {r4, r5, r6, r7, r8, r9, sl, fp, pc}
 8004aea:	9b66      	ldr	r3, [sp, #408]	@ 0x198
 8004aec:	2b03      	cmp	r3, #3
 8004aee:	d1f5      	bne.n	8004adc <__kernel_rem_pio2f+0x3b4>
 8004af0:	aa30      	add	r2, sp, #192	@ 0xc0
 8004af2:	1f0b      	subs	r3, r1, #4
 8004af4:	4413      	add	r3, r2
 8004af6:	461a      	mov	r2, r3
 8004af8:	4620      	mov	r0, r4
 8004afa:	2800      	cmp	r0, #0
 8004afc:	f1a2 0204 	sub.w	r2, r2, #4
 8004b00:	dc52      	bgt.n	8004ba8 <__kernel_rem_pio2f+0x480>
 8004b02:	4622      	mov	r2, r4
 8004b04:	2a01      	cmp	r2, #1
 8004b06:	f1a3 0304 	sub.w	r3, r3, #4
 8004b0a:	dc5d      	bgt.n	8004bc8 <__kernel_rem_pio2f+0x4a0>
 8004b0c:	ab30      	add	r3, sp, #192	@ 0xc0
 8004b0e:	ed5f 7a39 	vldr	s15, [pc, #-228]	@ 8004a2c <__kernel_rem_pio2f+0x304>
 8004b12:	440b      	add	r3, r1
 8004b14:	2c01      	cmp	r4, #1
 8004b16:	dc67      	bgt.n	8004be8 <__kernel_rem_pio2f+0x4c0>
 8004b18:	eddd 6a30 	vldr	s13, [sp, #192]	@ 0xc0
 8004b1c:	ed9d 7a31 	vldr	s14, [sp, #196]	@ 0xc4
 8004b20:	2e00      	cmp	r6, #0
 8004b22:	d167      	bne.n	8004bf4 <__kernel_rem_pio2f+0x4cc>
 8004b24:	edc7 6a00 	vstr	s13, [r7]
 8004b28:	ed87 7a01 	vstr	s14, [r7, #4]
 8004b2c:	edc7 7a02 	vstr	s15, [r7, #8]
 8004b30:	e7d4      	b.n	8004adc <__kernel_rem_pio2f+0x3b4>
 8004b32:	ab30      	add	r3, sp, #192	@ 0xc0
 8004b34:	ed1f 7a43 	vldr	s14, [pc, #-268]	@ 8004a2c <__kernel_rem_pio2f+0x304>
 8004b38:	440b      	add	r3, r1
 8004b3a:	4622      	mov	r2, r4
 8004b3c:	2a00      	cmp	r2, #0
 8004b3e:	da24      	bge.n	8004b8a <__kernel_rem_pio2f+0x462>
 8004b40:	b34e      	cbz	r6, 8004b96 <__kernel_rem_pio2f+0x46e>
 8004b42:	eef1 7a47 	vneg.f32	s15, s14
 8004b46:	edc7 7a00 	vstr	s15, [r7]
 8004b4a:	eddd 7a30 	vldr	s15, [sp, #192]	@ 0xc0
 8004b4e:	ee77 7ac7 	vsub.f32	s15, s15, s14
 8004b52:	aa31      	add	r2, sp, #196	@ 0xc4
 8004b54:	2301      	movs	r3, #1
 8004b56:	429c      	cmp	r4, r3
 8004b58:	da20      	bge.n	8004b9c <__kernel_rem_pio2f+0x474>
 8004b5a:	b10e      	cbz	r6, 8004b60 <__kernel_rem_pio2f+0x438>
 8004b5c:	eef1 7a67 	vneg.f32	s15, s15
 8004b60:	edc7 7a01 	vstr	s15, [r7, #4]
 8004b64:	e7ba      	b.n	8004adc <__kernel_rem_pio2f+0x3b4>
 8004b66:	ab30      	add	r3, sp, #192	@ 0xc0
 8004b68:	ed5f 7a50 	vldr	s15, [pc, #-320]	@ 8004a2c <__kernel_rem_pio2f+0x304>
 8004b6c:	440b      	add	r3, r1
 8004b6e:	2c00      	cmp	r4, #0
 8004b70:	da05      	bge.n	8004b7e <__kernel_rem_pio2f+0x456>
 8004b72:	b10e      	cbz	r6, 8004b78 <__kernel_rem_pio2f+0x450>
 8004b74:	eef1 7a67 	vneg.f32	s15, s15
 8004b78:	edc7 7a00 	vstr	s15, [r7]
 8004b7c:	e7ae      	b.n	8004adc <__kernel_rem_pio2f+0x3b4>
 8004b7e:	ed33 7a01 	vldmdb	r3!, {s14}
 8004b82:	3c01      	subs	r4, #1
 8004b84:	ee77 7a87 	vadd.f32	s15, s15, s14
 8004b88:	e7f1      	b.n	8004b6e <__kernel_rem_pio2f+0x446>
 8004b8a:	ed73 7a01 	vldmdb	r3!, {s15}
 8004b8e:	3a01      	subs	r2, #1
 8004b90:	ee37 7a27 	vadd.f32	s14, s14, s15
 8004b94:	e7d2      	b.n	8004b3c <__kernel_rem_pio2f+0x414>
 8004b96:	eef0 7a47 	vmov.f32	s15, s14
 8004b9a:	e7d4      	b.n	8004b46 <__kernel_rem_pio2f+0x41e>
 8004b9c:	ecb2 7a01 	vldmia	r2!, {s14}
 8004ba0:	3301      	adds	r3, #1
 8004ba2:	ee77 7a87 	vadd.f32	s15, s15, s14
 8004ba6:	e7d6      	b.n	8004b56 <__kernel_rem_pio2f+0x42e>
 8004ba8:	edd2 7a00 	vldr	s15, [r2]
 8004bac:	edd2 6a01 	vldr	s13, [r2, #4]
 8004bb0:	ee37 7aa6 	vadd.f32	s14, s15, s13
 8004bb4:	3801      	subs	r0, #1
 8004bb6:	ee77 7ac7 	vsub.f32	s15, s15, s14
 8004bba:	ed82 7a00 	vstr	s14, [r2]
 8004bbe:	ee77 7aa6 	vadd.f32	s15, s15, s13
 8004bc2:	edc2 7a01 	vstr	s15, [r2, #4]
 8004bc6:	e798      	b.n	8004afa <__kernel_rem_pio2f+0x3d2>
 8004bc8:	edd3 7a00 	vldr	s15, [r3]
 8004bcc:	edd3 6a01 	vldr	s13, [r3, #4]
 8004bd0:	ee37 7aa6 	vadd.f32	s14, s15, s13
 8004bd4:	3a01      	subs	r2, #1
 8004bd6:	ee77 7ac7 	vsub.f32	s15, s15, s14
 8004bda:	ed83 7a00 	vstr	s14, [r3]
 8004bde:	ee77 7aa6 	vadd.f32	s15, s15, s13
 8004be2:	edc3 7a01 	vstr	s15, [r3, #4]
 8004be6:	e78d      	b.n	8004b04 <__kernel_rem_pio2f+0x3dc>
 8004be8:	ed33 7a01 	vldmdb	r3!, {s14}
 8004bec:	3c01      	subs	r4, #1
 8004bee:	ee77 7a87 	vadd.f32	s15, s15, s14
 8004bf2:	e78f      	b.n	8004b14 <__kernel_rem_pio2f+0x3ec>
 8004bf4:	eef1 6a66 	vneg.f32	s13, s13
 8004bf8:	eeb1 7a47 	vneg.f32	s14, s14
 8004bfc:	edc7 6a00 	vstr	s13, [r7]
 8004c00:	ed87 7a01 	vstr	s14, [r7, #4]
 8004c04:	eef1 7a67 	vneg.f32	s15, s15
 8004c08:	e790      	b.n	8004b2c <__kernel_rem_pio2f+0x404>
 8004c0a:	bf00      	nop

08004c0c <scalbnf>:
 8004c0c:	ee10 3a10 	vmov	r3, s0
 8004c10:	f033 4200 	bics.w	r2, r3, #2147483648	@ 0x80000000
 8004c14:	d02b      	beq.n	8004c6e <scalbnf+0x62>
 8004c16:	f1b2 4fff 	cmp.w	r2, #2139095040	@ 0x7f800000
 8004c1a:	d302      	bcc.n	8004c22 <scalbnf+0x16>
 8004c1c:	ee30 0a00 	vadd.f32	s0, s0, s0
 8004c20:	4770      	bx	lr
 8004c22:	f013 4fff 	tst.w	r3, #2139095040	@ 0x7f800000
 8004c26:	d123      	bne.n	8004c70 <scalbnf+0x64>
 8004c28:	4b24      	ldr	r3, [pc, #144]	@ (8004cbc <scalbnf+0xb0>)
 8004c2a:	eddf 7a25 	vldr	s15, [pc, #148]	@ 8004cc0 <scalbnf+0xb4>
 8004c2e:	4298      	cmp	r0, r3
 8004c30:	ee20 0a27 	vmul.f32	s0, s0, s15
 8004c34:	db17      	blt.n	8004c66 <scalbnf+0x5a>
 8004c36:	ee10 3a10 	vmov	r3, s0
 8004c3a:	f3c3 52c7 	ubfx	r2, r3, #23, #8
 8004c3e:	3a19      	subs	r2, #25
 8004c40:	f24c 3150 	movw	r1, #50000	@ 0xc350
 8004c44:	4288      	cmp	r0, r1
 8004c46:	dd15      	ble.n	8004c74 <scalbnf+0x68>
 8004c48:	eddf 7a1e 	vldr	s15, [pc, #120]	@ 8004cc4 <scalbnf+0xb8>
 8004c4c:	eddf 6a1e 	vldr	s13, [pc, #120]	@ 8004cc8 <scalbnf+0xbc>
 8004c50:	ee10 3a10 	vmov	r3, s0
 8004c54:	eeb0 7a67 	vmov.f32	s14, s15
 8004c58:	2b00      	cmp	r3, #0
 8004c5a:	bfb8      	it	lt
 8004c5c:	eef0 7a66 	vmovlt.f32	s15, s13
 8004c60:	ee27 0a87 	vmul.f32	s0, s15, s14
 8004c64:	4770      	bx	lr
 8004c66:	eddf 7a19 	vldr	s15, [pc, #100]	@ 8004ccc <scalbnf+0xc0>
 8004c6a:	ee27 0a80 	vmul.f32	s0, s15, s0
 8004c6e:	4770      	bx	lr
 8004c70:	0dd2      	lsrs	r2, r2, #23
 8004c72:	e7e5      	b.n	8004c40 <scalbnf+0x34>
 8004c74:	4410      	add	r0, r2
 8004c76:	28fe      	cmp	r0, #254	@ 0xfe
 8004c78:	dce6      	bgt.n	8004c48 <scalbnf+0x3c>
 8004c7a:	2800      	cmp	r0, #0
 8004c7c:	dd06      	ble.n	8004c8c <scalbnf+0x80>
 8004c7e:	f023 43ff 	bic.w	r3, r3, #2139095040	@ 0x7f800000
 8004c82:	ea43 53c0 	orr.w	r3, r3, r0, lsl #23
 8004c86:	ee00 3a10 	vmov	s0, r3
 8004c8a:	4770      	bx	lr
 8004c8c:	f110 0f16 	cmn.w	r0, #22
 8004c90:	da09      	bge.n	8004ca6 <scalbnf+0x9a>
 8004c92:	eddf 7a0e 	vldr	s15, [pc, #56]	@ 8004ccc <scalbnf+0xc0>
 8004c96:	eddf 6a0e 	vldr	s13, [pc, #56]	@ 8004cd0 <scalbnf+0xc4>
 8004c9a:	ee10 3a10 	vmov	r3, s0
 8004c9e:	eeb0 7a67 	vmov.f32	s14, s15
 8004ca2:	2b00      	cmp	r3, #0
 8004ca4:	e7d9      	b.n	8004c5a <scalbnf+0x4e>
 8004ca6:	3019      	adds	r0, #25
 8004ca8:	f023 43ff 	bic.w	r3, r3, #2139095040	@ 0x7f800000
 8004cac:	ea43 53c0 	orr.w	r3, r3, r0, lsl #23
 8004cb0:	ed9f 0a08 	vldr	s0, [pc, #32]	@ 8004cd4 <scalbnf+0xc8>
 8004cb4:	ee07 3a90 	vmov	s15, r3
 8004cb8:	e7d7      	b.n	8004c6a <scalbnf+0x5e>
 8004cba:	bf00      	nop
 8004cbc:	ffff3cb0 	.word	0xffff3cb0
 8004cc0:	4c000000 	.word	0x4c000000
 8004cc4:	7149f2ca 	.word	0x7149f2ca
 8004cc8:	f149f2ca 	.word	0xf149f2ca
 8004ccc:	0da24260 	.word	0x0da24260
 8004cd0:	8da24260 	.word	0x8da24260
 8004cd4:	33000000 	.word	0x33000000

08004cd8 <floorf>:
 8004cd8:	ee10 3a10 	vmov	r3, s0
 8004cdc:	f3c3 52c7 	ubfx	r2, r3, #23, #8
 8004ce0:	3a7f      	subs	r2, #127	@ 0x7f
 8004ce2:	2a16      	cmp	r2, #22
 8004ce4:	f023 4100 	bic.w	r1, r3, #2147483648	@ 0x80000000
 8004ce8:	dc2b      	bgt.n	8004d42 <floorf+0x6a>
 8004cea:	2a00      	cmp	r2, #0
 8004cec:	da12      	bge.n	8004d14 <floorf+0x3c>
 8004cee:	eddf 7a19 	vldr	s15, [pc, #100]	@ 8004d54 <floorf+0x7c>
 8004cf2:	ee30 0a27 	vadd.f32	s0, s0, s15
 8004cf6:	eeb5 0ac0 	vcmpe.f32	s0, #0.0
 8004cfa:	eef1 fa10 	vmrs	APSR_nzcv, fpscr
 8004cfe:	dd06      	ble.n	8004d0e <floorf+0x36>
 8004d00:	2b00      	cmp	r3, #0
 8004d02:	da24      	bge.n	8004d4e <floorf+0x76>
 8004d04:	2900      	cmp	r1, #0
 8004d06:	4b14      	ldr	r3, [pc, #80]	@ (8004d58 <floorf+0x80>)
 8004d08:	bf08      	it	eq
 8004d0a:	f04f 4300 	moveq.w	r3, #2147483648	@ 0x80000000
 8004d0e:	ee00 3a10 	vmov	s0, r3
 8004d12:	4770      	bx	lr
 8004d14:	4911      	ldr	r1, [pc, #68]	@ (8004d5c <floorf+0x84>)
 8004d16:	4111      	asrs	r1, r2
 8004d18:	420b      	tst	r3, r1
 8004d1a:	d0fa      	beq.n	8004d12 <floorf+0x3a>
 8004d1c:	eddf 7a0d 	vldr	s15, [pc, #52]	@ 8004d54 <floorf+0x7c>
 8004d20:	ee30 0a27 	vadd.f32	s0, s0, s15
 8004d24:	eeb5 0ac0 	vcmpe.f32	s0, #0.0
 8004d28:	eef1 fa10 	vmrs	APSR_nzcv, fpscr
 8004d2c:	ddef      	ble.n	8004d0e <floorf+0x36>
 8004d2e:	2b00      	cmp	r3, #0
 8004d30:	bfbe      	ittt	lt
 8004d32:	f44f 0000 	movlt.w	r0, #8388608	@ 0x800000
 8004d36:	fa40 f202 	asrlt.w	r2, r0, r2
 8004d3a:	189b      	addlt	r3, r3, r2
 8004d3c:	ea23 0301 	bic.w	r3, r3, r1
 8004d40:	e7e5      	b.n	8004d0e <floorf+0x36>
 8004d42:	f1b1 4fff 	cmp.w	r1, #2139095040	@ 0x7f800000
 8004d46:	d3e4      	bcc.n	8004d12 <floorf+0x3a>
 8004d48:	ee30 0a00 	vadd.f32	s0, s0, s0
 8004d4c:	4770      	bx	lr
 8004d4e:	2300      	movs	r3, #0
 8004d50:	e7dd      	b.n	8004d0e <floorf+0x36>
 8004d52:	bf00      	nop
 8004d54:	7149f2ca 	.word	0x7149f2ca
 8004d58:	bf800000 	.word	0xbf800000
 8004d5c:	007fffff 	.word	0x007fffff

08004d60 <_init>:
 8004d60:	b5f8      	push	{r3, r4, r5, r6, r7, lr}
 8004d62:	bf00      	nop
 8004d64:	bcf8      	pop	{r3, r4, r5, r6, r7}
 8004d66:	bc08      	pop	{r3}
 8004d68:	469e      	mov	lr, r3
 8004d6a:	4770      	bx	lr

08004d6c <_fini>:
 8004d6c:	b5f8      	push	{r3, r4, r5, r6, r7, lr}
 8004d6e:	bf00      	nop
 8004d70:	bcf8      	pop	{r3, r4, r5, r6, r7}
 8004d72:	bc08      	pop	{r3}
 8004d74:	469e      	mov	lr, r3
 8004d76:	4770      	bx	lr
